
bomb:     file format elf32-i386


Disassembly of section .init:

08048760 <_init>:
 8048760:	53                   	push   %ebx
 8048761:	83 ec 08             	sub    $0x8,%esp
 8048764:	e8 47 02 00 00       	call   80489b0 <__x86.get_pc_thunk.bx>
 8048769:	81 c3 97 48 00 00    	add    $0x4897,%ebx
 804876f:	8b 83 fc ff ff ff    	mov    -0x4(%ebx),%eax
 8048775:	85 c0                	test   %eax,%eax
 8048777:	74 05                	je     804877e <_init+0x1e>
 8048779:	e8 f2 01 00 00       	call   8048970 <.plt.got>
 804877e:	83 c4 08             	add    $0x8,%esp
 8048781:	5b                   	pop    %ebx
 8048782:	c3                   	ret    

Disassembly of section .plt:

08048790 <.plt>:
 8048790:	ff 35 04 d0 04 08    	pushl  0x804d004
 8048796:	ff 25 08 d0 04 08    	jmp    *0x804d008
 804879c:	00 00                	add    %al,(%eax)
	...

080487a0 <read@plt>:
 80487a0:	ff 25 0c d0 04 08    	jmp    *0x804d00c
 80487a6:	68 00 00 00 00       	push   $0x0
 80487ab:	e9 e0 ff ff ff       	jmp    8048790 <.plt>

080487b0 <fflush@plt>:
 80487b0:	ff 25 10 d0 04 08    	jmp    *0x804d010
 80487b6:	68 08 00 00 00       	push   $0x8
 80487bb:	e9 d0 ff ff ff       	jmp    8048790 <.plt>

080487c0 <fgets@plt>:
 80487c0:	ff 25 14 d0 04 08    	jmp    *0x804d014
 80487c6:	68 10 00 00 00       	push   $0x10
 80487cb:	e9 c0 ff ff ff       	jmp    8048790 <.plt>

080487d0 <signal@plt>:
 80487d0:	ff 25 18 d0 04 08    	jmp    *0x804d018
 80487d6:	68 18 00 00 00       	push   $0x18
 80487db:	e9 b0 ff ff ff       	jmp    8048790 <.plt>

080487e0 <sleep@plt>:
 80487e0:	ff 25 1c d0 04 08    	jmp    *0x804d01c
 80487e6:	68 20 00 00 00       	push   $0x20
 80487eb:	e9 a0 ff ff ff       	jmp    8048790 <.plt>

080487f0 <alarm@plt>:
 80487f0:	ff 25 20 d0 04 08    	jmp    *0x804d020
 80487f6:	68 28 00 00 00       	push   $0x28
 80487fb:	e9 90 ff ff ff       	jmp    8048790 <.plt>

08048800 <__stack_chk_fail@plt>:
 8048800:	ff 25 24 d0 04 08    	jmp    *0x804d024
 8048806:	68 30 00 00 00       	push   $0x30
 804880b:	e9 80 ff ff ff       	jmp    8048790 <.plt>

08048810 <strcpy@plt>:
 8048810:	ff 25 28 d0 04 08    	jmp    *0x804d028
 8048816:	68 38 00 00 00       	push   $0x38
 804881b:	e9 70 ff ff ff       	jmp    8048790 <.plt>

08048820 <gethostname@plt>:
 8048820:	ff 25 2c d0 04 08    	jmp    *0x804d02c
 8048826:	68 40 00 00 00       	push   $0x40
 804882b:	e9 60 ff ff ff       	jmp    8048790 <.plt>

08048830 <getenv@plt>:
 8048830:	ff 25 30 d0 04 08    	jmp    *0x804d030
 8048836:	68 48 00 00 00       	push   $0x48
 804883b:	e9 50 ff ff ff       	jmp    8048790 <.plt>

08048840 <malloc@plt>:
 8048840:	ff 25 34 d0 04 08    	jmp    *0x804d034
 8048846:	68 50 00 00 00       	push   $0x50
 804884b:	e9 40 ff ff ff       	jmp    8048790 <.plt>

08048850 <puts@plt>:
 8048850:	ff 25 38 d0 04 08    	jmp    *0x804d038
 8048856:	68 58 00 00 00       	push   $0x58
 804885b:	e9 30 ff ff ff       	jmp    8048790 <.plt>

08048860 <__memmove_chk@plt>:
 8048860:	ff 25 3c d0 04 08    	jmp    *0x804d03c
 8048866:	68 60 00 00 00       	push   $0x60
 804886b:	e9 20 ff ff ff       	jmp    8048790 <.plt>

08048870 <exit@plt>:
 8048870:	ff 25 40 d0 04 08    	jmp    *0x804d040
 8048876:	68 68 00 00 00       	push   $0x68
 804887b:	e9 10 ff ff ff       	jmp    8048790 <.plt>

08048880 <__libc_start_main@plt>:
 8048880:	ff 25 44 d0 04 08    	jmp    *0x804d044
 8048886:	68 70 00 00 00       	push   $0x70
 804888b:	e9 00 ff ff ff       	jmp    8048790 <.plt>

08048890 <write@plt>:
 8048890:	ff 25 48 d0 04 08    	jmp    *0x804d048
 8048896:	68 78 00 00 00       	push   $0x78
 804889b:	e9 f0 fe ff ff       	jmp    8048790 <.plt>

080488a0 <strcasecmp@plt>:
 80488a0:	ff 25 4c d0 04 08    	jmp    *0x804d04c
 80488a6:	68 80 00 00 00       	push   $0x80
 80488ab:	e9 e0 fe ff ff       	jmp    8048790 <.plt>

080488b0 <__isoc99_sscanf@plt>:
 80488b0:	ff 25 50 d0 04 08    	jmp    *0x804d050
 80488b6:	68 88 00 00 00       	push   $0x88
 80488bb:	e9 d0 fe ff ff       	jmp    8048790 <.plt>

080488c0 <fopen@plt>:
 80488c0:	ff 25 54 d0 04 08    	jmp    *0x804d054
 80488c6:	68 90 00 00 00       	push   $0x90
 80488cb:	e9 c0 fe ff ff       	jmp    8048790 <.plt>

080488d0 <__errno_location@plt>:
 80488d0:	ff 25 58 d0 04 08    	jmp    *0x804d058
 80488d6:	68 98 00 00 00       	push   $0x98
 80488db:	e9 b0 fe ff ff       	jmp    8048790 <.plt>

080488e0 <__printf_chk@plt>:
 80488e0:	ff 25 5c d0 04 08    	jmp    *0x804d05c
 80488e6:	68 a0 00 00 00       	push   $0xa0
 80488eb:	e9 a0 fe ff ff       	jmp    8048790 <.plt>

080488f0 <socket@plt>:
 80488f0:	ff 25 60 d0 04 08    	jmp    *0x804d060
 80488f6:	68 a8 00 00 00       	push   $0xa8
 80488fb:	e9 90 fe ff ff       	jmp    8048790 <.plt>

08048900 <__fprintf_chk@plt>:
 8048900:	ff 25 64 d0 04 08    	jmp    *0x804d064
 8048906:	68 b0 00 00 00       	push   $0xb0
 804890b:	e9 80 fe ff ff       	jmp    8048790 <.plt>

08048910 <gethostbyname@plt>:
 8048910:	ff 25 68 d0 04 08    	jmp    *0x804d068
 8048916:	68 b8 00 00 00       	push   $0xb8
 804891b:	e9 70 fe ff ff       	jmp    8048790 <.plt>

08048920 <strtol@plt>:
 8048920:	ff 25 6c d0 04 08    	jmp    *0x804d06c
 8048926:	68 c0 00 00 00       	push   $0xc0
 804892b:	e9 60 fe ff ff       	jmp    8048790 <.plt>

08048930 <connect@plt>:
 8048930:	ff 25 70 d0 04 08    	jmp    *0x804d070
 8048936:	68 c8 00 00 00       	push   $0xc8
 804893b:	e9 50 fe ff ff       	jmp    8048790 <.plt>

08048940 <close@plt>:
 8048940:	ff 25 74 d0 04 08    	jmp    *0x804d074
 8048946:	68 d0 00 00 00       	push   $0xd0
 804894b:	e9 40 fe ff ff       	jmp    8048790 <.plt>

08048950 <__ctype_b_loc@plt>:
 8048950:	ff 25 78 d0 04 08    	jmp    *0x804d078
 8048956:	68 d8 00 00 00       	push   $0xd8
 804895b:	e9 30 fe ff ff       	jmp    8048790 <.plt>

08048960 <__sprintf_chk@plt>:
 8048960:	ff 25 7c d0 04 08    	jmp    *0x804d07c
 8048966:	68 e0 00 00 00       	push   $0xe0
 804896b:	e9 20 fe ff ff       	jmp    8048790 <.plt>

Disassembly of section .plt.got:

08048970 <.plt.got>:
 8048970:	ff 25 fc cf 04 08    	jmp    *0x804cffc
 8048976:	66 90                	xchg   %ax,%ax

Disassembly of section .text:

08048980 <_start>:
 8048980:	31 ed                	xor    %ebp,%ebp
 8048982:	5e                   	pop    %esi
 8048983:	89 e1                	mov    %esp,%ecx
 8048985:	83 e4 f0             	and    $0xfffffff0,%esp
 8048988:	50                   	push   %eax
 8048989:	54                   	push   %esp
 804898a:	52                   	push   %edx
 804898b:	68 b0 a1 04 08       	push   $0x804a1b0
 8048990:	68 50 a1 04 08       	push   $0x804a150
 8048995:	51                   	push   %ecx
 8048996:	56                   	push   %esi
 8048997:	68 7b 8a 04 08       	push   $0x8048a7b
 804899c:	e8 df fe ff ff       	call   8048880 <__libc_start_main@plt>
 80489a1:	f4                   	hlt    
 80489a2:	66 90                	xchg   %ax,%ax
 80489a4:	66 90                	xchg   %ax,%ax
 80489a6:	66 90                	xchg   %ax,%ax
 80489a8:	66 90                	xchg   %ax,%ax
 80489aa:	66 90                	xchg   %ax,%ax
 80489ac:	66 90                	xchg   %ax,%ax
 80489ae:	66 90                	xchg   %ax,%ax

080489b0 <__x86.get_pc_thunk.bx>:
 80489b0:	8b 1c 24             	mov    (%esp),%ebx
 80489b3:	c3                   	ret    
 80489b4:	66 90                	xchg   %ax,%ax
 80489b6:	66 90                	xchg   %ax,%ax
 80489b8:	66 90                	xchg   %ax,%ax
 80489ba:	66 90                	xchg   %ax,%ax
 80489bc:	66 90                	xchg   %ax,%ax
 80489be:	66 90                	xchg   %ax,%ax

080489c0 <deregister_tm_clones>:
 80489c0:	b8 c3 d7 04 08       	mov    $0x804d7c3,%eax
 80489c5:	2d c0 d7 04 08       	sub    $0x804d7c0,%eax
 80489ca:	83 f8 06             	cmp    $0x6,%eax
 80489cd:	76 1a                	jbe    80489e9 <deregister_tm_clones+0x29>
 80489cf:	b8 00 00 00 00       	mov    $0x0,%eax
 80489d4:	85 c0                	test   %eax,%eax
 80489d6:	74 11                	je     80489e9 <deregister_tm_clones+0x29>
 80489d8:	55                   	push   %ebp
 80489d9:	89 e5                	mov    %esp,%ebp
 80489db:	83 ec 14             	sub    $0x14,%esp
 80489de:	68 c0 d7 04 08       	push   $0x804d7c0
 80489e3:	ff d0                	call   *%eax
 80489e5:	83 c4 10             	add    $0x10,%esp
 80489e8:	c9                   	leave  
 80489e9:	f3 c3                	repz ret 
 80489eb:	90                   	nop
 80489ec:	8d 74 26 00          	lea    0x0(%esi,%eiz,1),%esi

080489f0 <register_tm_clones>:
 80489f0:	b8 c0 d7 04 08       	mov    $0x804d7c0,%eax
 80489f5:	2d c0 d7 04 08       	sub    $0x804d7c0,%eax
 80489fa:	c1 f8 02             	sar    $0x2,%eax
 80489fd:	89 c2                	mov    %eax,%edx
 80489ff:	c1 ea 1f             	shr    $0x1f,%edx
 8048a02:	01 d0                	add    %edx,%eax
 8048a04:	d1 f8                	sar    %eax
 8048a06:	74 1b                	je     8048a23 <register_tm_clones+0x33>
 8048a08:	ba 00 00 00 00       	mov    $0x0,%edx
 8048a0d:	85 d2                	test   %edx,%edx
 8048a0f:	74 12                	je     8048a23 <register_tm_clones+0x33>
 8048a11:	55                   	push   %ebp
 8048a12:	89 e5                	mov    %esp,%ebp
 8048a14:	83 ec 10             	sub    $0x10,%esp
 8048a17:	50                   	push   %eax
 8048a18:	68 c0 d7 04 08       	push   $0x804d7c0
 8048a1d:	ff d2                	call   *%edx
 8048a1f:	83 c4 10             	add    $0x10,%esp
 8048a22:	c9                   	leave  
 8048a23:	f3 c3                	repz ret 
 8048a25:	8d 74 26 00          	lea    0x0(%esi,%eiz,1),%esi
 8048a29:	8d bc 27 00 00 00 00 	lea    0x0(%edi,%eiz,1),%edi

08048a30 <__do_global_dtors_aux>:
 8048a30:	80 3d e8 d7 04 08 00 	cmpb   $0x0,0x804d7e8
 8048a37:	75 13                	jne    8048a4c <__do_global_dtors_aux+0x1c>
 8048a39:	55                   	push   %ebp
 8048a3a:	89 e5                	mov    %esp,%ebp
 8048a3c:	83 ec 08             	sub    $0x8,%esp
 8048a3f:	e8 7c ff ff ff       	call   80489c0 <deregister_tm_clones>
 8048a44:	c6 05 e8 d7 04 08 01 	movb   $0x1,0x804d7e8
 8048a4b:	c9                   	leave  
 8048a4c:	f3 c3                	repz ret 
 8048a4e:	66 90                	xchg   %ax,%ax

08048a50 <frame_dummy>:
 8048a50:	b8 10 cf 04 08       	mov    $0x804cf10,%eax
 8048a55:	8b 10                	mov    (%eax),%edx
 8048a57:	85 d2                	test   %edx,%edx
 8048a59:	75 05                	jne    8048a60 <frame_dummy+0x10>
 8048a5b:	eb 93                	jmp    80489f0 <register_tm_clones>
 8048a5d:	8d 76 00             	lea    0x0(%esi),%esi
 8048a60:	ba 00 00 00 00       	mov    $0x0,%edx
 8048a65:	85 d2                	test   %edx,%edx
 8048a67:	74 f2                	je     8048a5b <frame_dummy+0xb>
 8048a69:	55                   	push   %ebp
 8048a6a:	89 e5                	mov    %esp,%ebp
 8048a6c:	83 ec 14             	sub    $0x14,%esp
 8048a6f:	50                   	push   %eax
 8048a70:	ff d2                	call   *%edx
 8048a72:	83 c4 10             	add    $0x10,%esp
 8048a75:	c9                   	leave  
 8048a76:	e9 75 ff ff ff       	jmp    80489f0 <register_tm_clones>

08048a7b <main>:
 8048a7b:	8d 4c 24 04          	lea    0x4(%esp),%ecx
 8048a7f:	83 e4 f0             	and    $0xfffffff0,%esp
 8048a82:	ff 71 fc             	pushl  -0x4(%ecx)
 8048a85:	55                   	push   %ebp
 8048a86:	89 e5                	mov    %esp,%ebp
 8048a88:	53                   	push   %ebx
 8048a89:	51                   	push   %ecx
 8048a8a:	8b 01                	mov    (%ecx),%eax
 8048a8c:	8b 59 04             	mov    0x4(%ecx),%ebx
 8048a8f:	83 f8 01             	cmp    $0x1,%eax
 8048a92:	75 0c                	jne    8048aa0 <main+0x25>
 8048a94:	a1 e0 d7 04 08       	mov    0x804d7e0,%eax
 8048a99:	a3 f0 d7 04 08       	mov    %eax,0x804d7f0
 8048a9e:	eb 5b                	jmp    8048afb <main+0x80>
 8048aa0:	83 f8 02             	cmp    $0x2,%eax
 8048aa3:	75 39                	jne    8048ade <main+0x63>
 8048aa5:	83 ec 08             	sub    $0x8,%esp
 8048aa8:	68 e8 a1 04 08       	push   $0x804a1e8
 8048aad:	ff 73 04             	pushl  0x4(%ebx)
 8048ab0:	e8 0b fe ff ff       	call   80488c0 <fopen@plt>
 8048ab5:	a3 f0 d7 04 08       	mov    %eax,0x804d7f0
 8048aba:	83 c4 10             	add    $0x10,%esp
 8048abd:	85 c0                	test   %eax,%eax
 8048abf:	75 3a                	jne    8048afb <main+0x80>
 8048ac1:	ff 73 04             	pushl  0x4(%ebx)
 8048ac4:	ff 33                	pushl  (%ebx)
 8048ac6:	68 ea a1 04 08       	push   $0x804a1ea
 8048acb:	6a 01                	push   $0x1
 8048acd:	e8 0e fe ff ff       	call   80488e0 <__printf_chk@plt>
 8048ad2:	c7 04 24 08 00 00 00 	movl   $0x8,(%esp)
 8048ad9:	e8 92 fd ff ff       	call   8048870 <exit@plt>
 8048ade:	83 ec 04             	sub    $0x4,%esp
 8048ae1:	ff 33                	pushl  (%ebx)
 8048ae3:	68 07 a2 04 08       	push   $0x804a207
 8048ae8:	6a 01                	push   $0x1
 8048aea:	e8 f1 fd ff ff       	call   80488e0 <__printf_chk@plt>
 8048aef:	c7 04 24 08 00 00 00 	movl   $0x8,(%esp)
 8048af6:	e8 75 fd ff ff       	call   8048870 <exit@plt>
 8048afb:	e8 07 07 00 00       	call   8049207 <initialize_bomb>
 8048b00:	83 ec 0c             	sub    $0xc,%esp
 8048b03:	68 78 a2 04 08       	push   $0x804a278
 8048b08:	e8 43 fd ff ff       	call   8048850 <puts@plt>
 8048b0d:	c7 04 24 b4 a2 04 08 	movl   $0x804a2b4,(%esp)
 8048b14:	e8 37 fd ff ff       	call   8048850 <puts@plt>
 8048b19:	e8 b6 09 00 00       	call   80494d4 <read_line>
 8048b1e:	89 04 24             	mov    %eax,(%esp)
 8048b21:	e8 07 01 00 00       	call   8048c2d <phase_1>
 8048b26:	e8 a2 0a 00 00       	call   80495cd <phase_defused>
 8048b2b:	c7 04 24 e0 a2 04 08 	movl   $0x804a2e0,(%esp)
 8048b32:	e8 19 fd ff ff       	call   8048850 <puts@plt>
 8048b37:	e8 98 09 00 00       	call   80494d4 <read_line>
 8048b3c:	89 04 24             	mov    %eax,(%esp)
 8048b3f:	e8 45 01 00 00       	call   8048c89 <phase_2>
 8048b44:	e8 84 0a 00 00       	call   80495cd <phase_defused>
 8048b49:	c7 04 24 21 a2 04 08 	movl   $0x804a221,(%esp)
 8048b50:	e8 fb fc ff ff       	call   8048850 <puts@plt>
 8048b55:	e8 7a 09 00 00       	call   80494d4 <read_line>
 8048b5a:	89 04 24             	mov    %eax,(%esp)
 8048b5d:	e8 48 01 00 00       	call   8048caa <phase_3>
 8048b62:	e8 66 0a 00 00       	call   80495cd <phase_defused>
 8048b67:	c7 04 24 3f a2 04 08 	movl   $0x804a23f,(%esp)
 8048b6e:	e8 dd fc ff ff       	call   8048850 <puts@plt>
 8048b73:	e8 5c 09 00 00       	call   80494d4 <read_line>
 8048b78:	89 04 24             	mov    %eax,(%esp)
 8048b7b:	e8 9e 01 00 00       	call   8048d1e <phase_4>
 8048b80:	e8 48 0a 00 00       	call   80495cd <phase_defused>
 8048b85:	c7 04 24 0c a3 04 08 	movl   $0x804a30c,(%esp)
 8048b8c:	e8 bf fc ff ff       	call   8048850 <puts@plt>
 8048b91:	e8 3e 09 00 00       	call   80494d4 <read_line>
 8048b96:	89 04 24             	mov    %eax,(%esp)
 8048b99:	e8 eb 01 00 00       	call   8048d89 <phase_5>
 8048b9e:	e8 2a 0a 00 00       	call   80495cd <phase_defused>
 8048ba3:	c7 04 24 50 a2 04 08 	movl   $0x804a250,(%esp)
 8048baa:	e8 a1 fc ff ff       	call   8048850 <puts@plt>
 8048baf:	e8 20 09 00 00       	call   80494d4 <read_line>
 8048bb4:	89 04 24             	mov    %eax,(%esp)
 8048bb7:	e8 b9 02 00 00       	call   8048e75 <phase_6>
 8048bbc:	e8 0c 0a 00 00       	call   80495cd <phase_defused>
 8048bc1:	c7 04 24 30 a3 04 08 	movl   $0x804a330,(%esp)
 8048bc8:	e8 83 fc ff ff       	call   8048850 <puts@plt>
 8048bcd:	e8 02 09 00 00       	call   80494d4 <read_line>
 8048bd2:	89 04 24             	mov    %eax,(%esp)
 8048bd5:	e8 0d 03 00 00       	call   8048ee7 <phase_7>
 8048bda:	e8 ee 09 00 00       	call   80495cd <phase_defused>
 8048bdf:	c7 04 24 50 a3 04 08 	movl   $0x804a350,(%esp)
 8048be6:	e8 65 fc ff ff       	call   8048850 <puts@plt>
 8048beb:	e8 e4 08 00 00       	call   80494d4 <read_line>
 8048bf0:	89 04 24             	mov    %eax,(%esp)
 8048bf3:	e8 7c 03 00 00       	call   8048f74 <phase_8>
 8048bf8:	e8 d0 09 00 00       	call   80495cd <phase_defused>
 8048bfd:	c7 04 24 6e a2 04 08 	movl   $0x804a26e,(%esp)
 8048c04:	e8 47 fc ff ff       	call   8048850 <puts@plt>
 8048c09:	e8 c6 08 00 00       	call   80494d4 <read_line>
 8048c0e:	89 04 24             	mov    %eax,(%esp)
 8048c11:	e8 af 04 00 00       	call   80490c5 <phase_9>
 8048c16:	e8 b2 09 00 00       	call   80495cd <phase_defused>
 8048c1b:	83 c4 10             	add    $0x10,%esp
 8048c1e:	b8 00 00 00 00       	mov    $0x0,%eax
 8048c23:	8d 65 f8             	lea    -0x8(%ebp),%esp
 8048c26:	59                   	pop    %ecx
 8048c27:	5b                   	pop    %ebx
 8048c28:	5d                   	pop    %ebp
 8048c29:	8d 61 fc             	lea    -0x4(%ecx),%esp
 8048c2c:	c3                   	ret    

08048c2d <phase_1>:
 8048c2d:	83 ec 20             	sub    $0x20,%esp
 8048c30:	65 a1 14 00 00 00    	mov    %gs:0x14,%eax
 8048c36:	89 44 24 10          	mov    %eax,0x10(%esp)
 8048c3a:	31 c0                	xor    %eax,%eax
 8048c3c:	c7 44 24 0c 00 00 00 	movl   $0x0,0xc(%esp)
 8048c43:	00 
 8048c44:	8d 44 24 0c          	lea    0xc(%esp),%eax
 8048c48:	50                   	push   %eax
 8048c49:	68 04 a6 04 08       	push   $0x804a604
 8048c4e:	ff 74 24 2c          	pushl  0x2c(%esp)
 8048c52:	e8 59 fc ff ff       	call   80488b0 <__isoc99_sscanf@plt>
 8048c57:	83 c4 10             	add    $0x10,%esp
 8048c5a:	83 f8 01             	cmp    $0x1,%eax
 8048c5d:	74 05                	je     8048c64 <phase_1+0x37>
 8048c5f:	e8 f8 07 00 00       	call   804945c <explode_bomb>
 8048c64:	81 7c 24 08 1f 01 00 	cmpl   $0x11f,0x8(%esp)
 8048c6b:	00 
 8048c6c:	74 05                	je     8048c73 <phase_1+0x46>
 8048c6e:	e8 e9 07 00 00       	call   804945c <explode_bomb>
 8048c73:	8b 44 24 0c          	mov    0xc(%esp),%eax
 8048c77:	65 33 05 14 00 00 00 	xor    %gs:0x14,%eax
 8048c7e:	74 05                	je     8048c85 <phase_1+0x58>
 8048c80:	e8 7b fb ff ff       	call   8048800 <__stack_chk_fail@plt>
 8048c85:	83 c4 1c             	add    $0x1c,%esp
 8048c88:	c3                   	ret    

08048c89 <phase_2>:
 8048c89:	83 ec 14             	sub    $0x14,%esp
 8048c8c:	68 70 a3 04 08       	push   $0x804a370
 8048c91:	ff 74 24 1c          	pushl  0x1c(%esp)
 8048c95:	e8 08 05 00 00       	call   80491a2 <strings_not_equal>
 8048c9a:	83 c4 10             	add    $0x10,%esp
 8048c9d:	85 c0                	test   %eax,%eax
 8048c9f:	74 05                	je     8048ca6 <phase_2+0x1d>
 8048ca1:	e8 b6 07 00 00       	call   804945c <explode_bomb>
 8048ca6:	83 c4 0c             	add    $0xc,%esp
 8048ca9:	c3                   	ret    

08048caa <phase_3>:
 8048caa:	83 ec 18             	sub    $0x18,%esp
 8048cad:	68 98 a3 04 08       	push   $0x804a398
 8048cb2:	e8 cc 04 00 00       	call   8049183 <string_length>
 8048cb7:	83 c0 01             	add    $0x1,%eax
 8048cba:	89 04 24             	mov    %eax,(%esp)
 8048cbd:	e8 7e fb ff ff       	call   8048840 <malloc@plt>
 8048cc2:	c7 00 49 20 61 6d    	movl   $0x6d612049,(%eax)
 8048cc8:	c7 40 04 20 6a 75 73 	movl   $0x73756a20,0x4(%eax)
 8048ccf:	c7 40 08 74 20 61 20 	movl   $0x20612074,0x8(%eax)
 8048cd6:	c7 40 0c 72 65 6e 65 	movl   $0x656e6572,0xc(%eax)
 8048cdd:	c7 40 10 67 61 64 65 	movl   $0x65646167,0x10(%eax)
 8048ce4:	c7 40 14 20 68 6f 63 	movl   $0x636f6820,0x14(%eax)
 8048ceb:	c7 40 18 6b 65 79 20 	movl   $0x2079656b,0x18(%eax)
 8048cf2:	c7 40 1c 6d 6f 6d 2e 	movl   $0x2e6d6f6d,0x1c(%eax)
 8048cf9:	c6 40 20 00          	movb   $0x0,0x20(%eax)
 8048cfd:	c6 40 1f 33          	movb   $0x33,0x1f(%eax)
 8048d01:	83 c4 08             	add    $0x8,%esp
 8048d04:	50                   	push   %eax
 8048d05:	ff 74 24 1c          	pushl  0x1c(%esp)
 8048d09:	e8 94 04 00 00       	call   80491a2 <strings_not_equal>
 8048d0e:	83 c4 10             	add    $0x10,%esp
 8048d11:	85 c0                	test   %eax,%eax
 8048d13:	74 05                	je     8048d1a <phase_3+0x70>
 8048d15:	e8 42 07 00 00       	call   804945c <explode_bomb>
 8048d1a:	83 c4 0c             	add    $0xc,%esp
 8048d1d:	c3                   	ret    

08048d1e <phase_4>:
 8048d1e:	56                   	push   %esi
 8048d1f:	53                   	push   %ebx
 8048d20:	83 ec 2c             	sub    $0x2c,%esp
 8048d23:	65 a1 14 00 00 00    	mov    %gs:0x14,%eax
 8048d29:	89 44 24 24          	mov    %eax,0x24(%esp)
 8048d2d:	31 c0                	xor    %eax,%eax
 8048d2f:	8d 44 24 0c          	lea    0xc(%esp),%eax
 8048d33:	50                   	push   %eax
 8048d34:	ff 74 24 3c          	pushl  0x3c(%esp)
 8048d38:	e8 5c 07 00 00       	call   8049499 <read_six_numbers>
 8048d3d:	83 c4 10             	add    $0x10,%esp
 8048d40:	83 7c 24 04 00       	cmpl   $0x0,0x4(%esp)
 8048d45:	79 05                	jns    8048d4c <phase_4+0x2e>
 8048d47:	e8 10 07 00 00       	call   804945c <explode_bomb>
 8048d4c:	8d 74 24 04          	lea    0x4(%esp),%esi
 8048d50:	bb 1c 00 00 00       	mov    $0x1c,%ebx
 8048d55:	89 d8                	mov    %ebx,%eax
 8048d57:	03 06                	add    (%esi),%eax
 8048d59:	39 46 04             	cmp    %eax,0x4(%esi)
 8048d5c:	74 05                	je     8048d63 <phase_4+0x45>
 8048d5e:	e8 f9 06 00 00       	call   804945c <explode_bomb>
 8048d63:	83 c6 04             	add    $0x4,%esi
 8048d66:	83 c3 1c             	add    $0x1c,%ebx
 8048d69:	81 fb a8 00 00 00    	cmp    $0xa8,%ebx
 8048d6f:	75 e4                	jne    8048d55 <phase_4+0x37>
 8048d71:	8b 44 24 1c          	mov    0x1c(%esp),%eax
 8048d75:	65 33 05 14 00 00 00 	xor    %gs:0x14,%eax
 8048d7c:	74 05                	je     8048d83 <phase_4+0x65>
 8048d7e:	e8 7d fa ff ff       	call   8048800 <__stack_chk_fail@plt>
 8048d83:	83 c4 24             	add    $0x24,%esp
 8048d86:	5b                   	pop    %ebx
 8048d87:	5e                   	pop    %esi
 8048d88:	c3                   	ret    

08048d89 <phase_5>:
 8048d89:	83 ec 1c             	sub    $0x1c,%esp
 8048d8c:	65 a1 14 00 00 00    	mov    %gs:0x14,%eax
 8048d92:	89 44 24 0c          	mov    %eax,0xc(%esp)
 8048d96:	31 c0                	xor    %eax,%eax
 8048d98:	8d 44 24 08          	lea    0x8(%esp),%eax
 8048d9c:	50                   	push   %eax
 8048d9d:	8d 44 24 08          	lea    0x8(%esp),%eax
 8048da1:	50                   	push   %eax
 8048da2:	68 01 a6 04 08       	push   $0x804a601
 8048da7:	ff 74 24 2c          	pushl  0x2c(%esp)
 8048dab:	e8 00 fb ff ff       	call   80488b0 <__isoc99_sscanf@plt>
 8048db0:	83 c4 10             	add    $0x10,%esp
 8048db3:	83 f8 01             	cmp    $0x1,%eax
 8048db6:	7f 05                	jg     8048dbd <phase_5+0x34>
 8048db8:	e8 9f 06 00 00       	call   804945c <explode_bomb>
 8048dbd:	83 7c 24 04 07       	cmpl   $0x7,0x4(%esp)
 8048dc2:	77 3c                	ja     8048e00 <phase_5+0x77>
 8048dc4:	8b 44 24 04          	mov    0x4(%esp),%eax
 8048dc8:	ff 24 85 c0 a3 04 08 	jmp    *0x804a3c0(,%eax,4)
 8048dcf:	b8 f7 01 00 00       	mov    $0x1f7,%eax
 8048dd4:	eb 3b                	jmp    8048e11 <phase_5+0x88>
 8048dd6:	b8 c4 03 00 00       	mov    $0x3c4,%eax
 8048ddb:	eb 34                	jmp    8048e11 <phase_5+0x88>
 8048ddd:	b8 c8 03 00 00       	mov    $0x3c8,%eax
 8048de2:	eb 2d                	jmp    8048e11 <phase_5+0x88>
 8048de4:	b8 fd 01 00 00       	mov    $0x1fd,%eax
 8048de9:	eb 26                	jmp    8048e11 <phase_5+0x88>
 8048deb:	b8 91 02 00 00       	mov    $0x291,%eax
 8048df0:	eb 1f                	jmp    8048e11 <phase_5+0x88>
 8048df2:	b8 7b 02 00 00       	mov    $0x27b,%eax
 8048df7:	eb 18                	jmp    8048e11 <phase_5+0x88>
 8048df9:	b8 bc 03 00 00       	mov    $0x3bc,%eax
 8048dfe:	eb 11                	jmp    8048e11 <phase_5+0x88>
 8048e00:	e8 57 06 00 00       	call   804945c <explode_bomb>
 8048e05:	b8 00 00 00 00       	mov    $0x0,%eax
 8048e0a:	eb 05                	jmp    8048e11 <phase_5+0x88>
 8048e0c:	b8 10 02 00 00       	mov    $0x210,%eax
 8048e11:	3b 44 24 08          	cmp    0x8(%esp),%eax
 8048e15:	74 05                	je     8048e1c <phase_5+0x93>
 8048e17:	e8 40 06 00 00       	call   804945c <explode_bomb>
 8048e1c:	8b 44 24 0c          	mov    0xc(%esp),%eax
 8048e20:	65 33 05 14 00 00 00 	xor    %gs:0x14,%eax
 8048e27:	74 05                	je     8048e2e <phase_5+0xa5>
 8048e29:	e8 d2 f9 ff ff       	call   8048800 <__stack_chk_fail@plt>
 8048e2e:	83 c4 1c             	add    $0x1c,%esp
 8048e31:	c3                   	ret    

08048e32 <func6>:
 8048e32:	57                   	push   %edi
 8048e33:	56                   	push   %esi
 8048e34:	53                   	push   %ebx
 8048e35:	8b 5c 24 10          	mov    0x10(%esp),%ebx
 8048e39:	8b 7c 24 14          	mov    0x14(%esp),%edi
 8048e3d:	85 db                	test   %ebx,%ebx
 8048e3f:	7e 2b                	jle    8048e6c <func6+0x3a>
 8048e41:	89 f8                	mov    %edi,%eax
 8048e43:	83 fb 01             	cmp    $0x1,%ebx
 8048e46:	74 29                	je     8048e71 <func6+0x3f>
 8048e48:	83 ec 08             	sub    $0x8,%esp
 8048e4b:	57                   	push   %edi
 8048e4c:	8d 43 ff             	lea    -0x1(%ebx),%eax
 8048e4f:	50                   	push   %eax
 8048e50:	e8 dd ff ff ff       	call   8048e32 <func6>
 8048e55:	83 c4 08             	add    $0x8,%esp
 8048e58:	8d 34 07             	lea    (%edi,%eax,1),%esi
 8048e5b:	57                   	push   %edi
 8048e5c:	83 eb 02             	sub    $0x2,%ebx
 8048e5f:	53                   	push   %ebx
 8048e60:	e8 cd ff ff ff       	call   8048e32 <func6>
 8048e65:	83 c4 10             	add    $0x10,%esp
 8048e68:	01 f0                	add    %esi,%eax
 8048e6a:	eb 05                	jmp    8048e71 <func6+0x3f>
 8048e6c:	b8 00 00 00 00       	mov    $0x0,%eax
 8048e71:	5b                   	pop    %ebx
 8048e72:	5e                   	pop    %esi
 8048e73:	5f                   	pop    %edi
 8048e74:	c3                   	ret    

08048e75 <phase_6>:
 8048e75:	83 ec 1c             	sub    $0x1c,%esp
 8048e78:	65 a1 14 00 00 00    	mov    %gs:0x14,%eax
 8048e7e:	89 44 24 0c          	mov    %eax,0xc(%esp)
 8048e82:	31 c0                	xor    %eax,%eax
 8048e84:	8d 44 24 04          	lea    0x4(%esp),%eax
 8048e88:	50                   	push   %eax
 8048e89:	8d 44 24 0c          	lea    0xc(%esp),%eax
 8048e8d:	50                   	push   %eax
 8048e8e:	68 01 a6 04 08       	push   $0x804a601
 8048e93:	ff 74 24 2c          	pushl  0x2c(%esp)
 8048e97:	e8 14 fa ff ff       	call   80488b0 <__isoc99_sscanf@plt>
 8048e9c:	83 c4 10             	add    $0x10,%esp
 8048e9f:	83 f8 02             	cmp    $0x2,%eax
 8048ea2:	75 0c                	jne    8048eb0 <phase_6+0x3b>
 8048ea4:	8b 44 24 04          	mov    0x4(%esp),%eax
 8048ea8:	83 e8 02             	sub    $0x2,%eax
 8048eab:	83 f8 02             	cmp    $0x2,%eax
 8048eae:	76 05                	jbe    8048eb5 <phase_6+0x40>
 8048eb0:	e8 a7 05 00 00       	call   804945c <explode_bomb>
 8048eb5:	83 ec 08             	sub    $0x8,%esp
 8048eb8:	ff 74 24 0c          	pushl  0xc(%esp)
 8048ebc:	6a 08                	push   $0x8
 8048ebe:	e8 6f ff ff ff       	call   8048e32 <func6>
 8048ec3:	83 c4 10             	add    $0x10,%esp
 8048ec6:	3b 44 24 08          	cmp    0x8(%esp),%eax
 8048eca:	74 05                	je     8048ed1 <phase_6+0x5c>
 8048ecc:	e8 8b 05 00 00       	call   804945c <explode_bomb>
 8048ed1:	8b 44 24 0c          	mov    0xc(%esp),%eax
 8048ed5:	65 33 05 14 00 00 00 	xor    %gs:0x14,%eax
 8048edc:	74 05                	je     8048ee3 <phase_6+0x6e>
 8048ede:	e8 1d f9 ff ff       	call   8048800 <__stack_chk_fail@plt>
 8048ee3:	83 c4 1c             	add    $0x1c,%esp
 8048ee6:	c3                   	ret    

08048ee7 <phase_7>:
 8048ee7:	83 ec 1c             	sub    $0x1c,%esp
 8048eea:	65 a1 14 00 00 00    	mov    %gs:0x14,%eax
 8048ef0:	89 44 24 0c          	mov    %eax,0xc(%esp)
 8048ef4:	31 c0                	xor    %eax,%eax
 8048ef6:	8d 44 24 08          	lea    0x8(%esp),%eax
 8048efa:	50                   	push   %eax
 8048efb:	8d 44 24 08          	lea    0x8(%esp),%eax
 8048eff:	50                   	push   %eax
 8048f00:	68 01 a6 04 08       	push   $0x804a601
 8048f05:	ff 74 24 2c          	pushl  0x2c(%esp)
 8048f09:	e8 a2 f9 ff ff       	call   80488b0 <__isoc99_sscanf@plt>
 8048f0e:	83 c4 10             	add    $0x10,%esp
 8048f11:	83 f8 01             	cmp    $0x1,%eax
 8048f14:	7f 05                	jg     8048f1b <phase_7+0x34>
 8048f16:	e8 41 05 00 00       	call   804945c <explode_bomb>
 8048f1b:	8b 44 24 04          	mov    0x4(%esp),%eax
 8048f1f:	83 e0 0f             	and    $0xf,%eax
 8048f22:	89 44 24 04          	mov    %eax,0x4(%esp)
 8048f26:	83 f8 0f             	cmp    $0xf,%eax
 8048f29:	74 2e                	je     8048f59 <phase_7+0x72>
 8048f2b:	b9 00 00 00 00       	mov    $0x0,%ecx
 8048f30:	ba 00 00 00 00       	mov    $0x0,%edx
 8048f35:	83 c2 01             	add    $0x1,%edx
 8048f38:	8b 04 85 e0 a3 04 08 	mov    0x804a3e0(,%eax,4),%eax
 8048f3f:	01 c1                	add    %eax,%ecx
 8048f41:	83 f8 0f             	cmp    $0xf,%eax
 8048f44:	75 ef                	jne    8048f35 <phase_7+0x4e>
 8048f46:	c7 44 24 04 0f 00 00 	movl   $0xf,0x4(%esp)
 8048f4d:	00 
 8048f4e:	83 fa 06             	cmp    $0x6,%edx
 8048f51:	75 06                	jne    8048f59 <phase_7+0x72>
 8048f53:	3b 4c 24 08          	cmp    0x8(%esp),%ecx
 8048f57:	74 05                	je     8048f5e <phase_7+0x77>
 8048f59:	e8 fe 04 00 00       	call   804945c <explode_bomb>
 8048f5e:	8b 44 24 0c          	mov    0xc(%esp),%eax
 8048f62:	65 33 05 14 00 00 00 	xor    %gs:0x14,%eax
 8048f69:	74 05                	je     8048f70 <phase_7+0x89>
 8048f6b:	e8 90 f8 ff ff       	call   8048800 <__stack_chk_fail@plt>
 8048f70:	83 c4 1c             	add    $0x1c,%esp
 8048f73:	c3                   	ret    

08048f74 <phase_8>:
 8048f74:	56                   	push   %esi
 8048f75:	53                   	push   %ebx
 8048f76:	83 ec 4c             	sub    $0x4c,%esp
 8048f79:	65 a1 14 00 00 00    	mov    %gs:0x14,%eax
 8048f7f:	89 44 24 44          	mov    %eax,0x44(%esp)
 8048f83:	31 c0                	xor    %eax,%eax
 8048f85:	8d 44 24 14          	lea    0x14(%esp),%eax
 8048f89:	50                   	push   %eax
 8048f8a:	ff 74 24 5c          	pushl  0x5c(%esp)
 8048f8e:	e8 06 05 00 00       	call   8049499 <read_six_numbers>
 8048f93:	83 c4 10             	add    $0x10,%esp
 8048f96:	be 00 00 00 00       	mov    $0x0,%esi
 8048f9b:	8b 44 b4 0c          	mov    0xc(%esp,%esi,4),%eax
 8048f9f:	83 e8 01             	sub    $0x1,%eax
 8048fa2:	83 f8 05             	cmp    $0x5,%eax
 8048fa5:	76 05                	jbe    8048fac <phase_8+0x38>
 8048fa7:	e8 b0 04 00 00       	call   804945c <explode_bomb>
 8048fac:	83 c6 01             	add    $0x1,%esi
 8048faf:	83 fe 06             	cmp    $0x6,%esi
 8048fb2:	74 1b                	je     8048fcf <phase_8+0x5b>
 8048fb4:	89 f3                	mov    %esi,%ebx
 8048fb6:	8b 44 9c 0c          	mov    0xc(%esp,%ebx,4),%eax
 8048fba:	39 44 b4 08          	cmp    %eax,0x8(%esp,%esi,4)
 8048fbe:	75 05                	jne    8048fc5 <phase_8+0x51>
 8048fc0:	e8 97 04 00 00       	call   804945c <explode_bomb>
 8048fc5:	83 c3 01             	add    $0x1,%ebx
 8048fc8:	83 fb 05             	cmp    $0x5,%ebx
 8048fcb:	7e e9                	jle    8048fb6 <phase_8+0x42>
 8048fcd:	eb cc                	jmp    8048f9b <phase_8+0x27>
 8048fcf:	8d 44 24 0c          	lea    0xc(%esp),%eax
 8048fd3:	8d 5c 24 24          	lea    0x24(%esp),%ebx
 8048fd7:	b9 07 00 00 00       	mov    $0x7,%ecx
 8048fdc:	89 ca                	mov    %ecx,%edx
 8048fde:	2b 10                	sub    (%eax),%edx
 8048fe0:	89 10                	mov    %edx,(%eax)
 8048fe2:	83 c0 04             	add    $0x4,%eax
 8048fe5:	39 c3                	cmp    %eax,%ebx
 8048fe7:	75 f3                	jne    8048fdc <phase_8+0x68>
 8048fe9:	bb 00 00 00 00       	mov    $0x0,%ebx
 8048fee:	eb 16                	jmp    8049006 <phase_8+0x92>
 8048ff0:	8b 52 08             	mov    0x8(%edx),%edx
 8048ff3:	83 c0 01             	add    $0x1,%eax
 8048ff6:	39 c8                	cmp    %ecx,%eax
 8048ff8:	75 f6                	jne    8048ff0 <phase_8+0x7c>
 8048ffa:	89 54 b4 24          	mov    %edx,0x24(%esp,%esi,4)
 8048ffe:	83 c3 01             	add    $0x1,%ebx
 8049001:	83 fb 06             	cmp    $0x6,%ebx
 8049004:	74 17                	je     804901d <phase_8+0xa9>
 8049006:	89 de                	mov    %ebx,%esi
 8049008:	8b 4c 9c 0c          	mov    0xc(%esp,%ebx,4),%ecx
 804900c:	b8 01 00 00 00       	mov    $0x1,%eax
 8049011:	ba 54 d1 04 08       	mov    $0x804d154,%edx
 8049016:	83 f9 01             	cmp    $0x1,%ecx
 8049019:	7f d5                	jg     8048ff0 <phase_8+0x7c>
 804901b:	eb dd                	jmp    8048ffa <phase_8+0x86>
 804901d:	8b 5c 24 24          	mov    0x24(%esp),%ebx
 8049021:	8d 44 24 24          	lea    0x24(%esp),%eax
 8049025:	8d 74 24 38          	lea    0x38(%esp),%esi
 8049029:	89 d9                	mov    %ebx,%ecx
 804902b:	8b 50 04             	mov    0x4(%eax),%edx
 804902e:	89 51 08             	mov    %edx,0x8(%ecx)
 8049031:	83 c0 04             	add    $0x4,%eax
 8049034:	89 d1                	mov    %edx,%ecx
 8049036:	39 c6                	cmp    %eax,%esi
 8049038:	75 f1                	jne    804902b <phase_8+0xb7>
 804903a:	c7 42 08 00 00 00 00 	movl   $0x0,0x8(%edx)
 8049041:	be 05 00 00 00       	mov    $0x5,%esi
 8049046:	8b 43 08             	mov    0x8(%ebx),%eax
 8049049:	8b 00                	mov    (%eax),%eax
 804904b:	39 03                	cmp    %eax,(%ebx)
 804904d:	7d 05                	jge    8049054 <phase_8+0xe0>
 804904f:	e8 08 04 00 00       	call   804945c <explode_bomb>
 8049054:	8b 5b 08             	mov    0x8(%ebx),%ebx
 8049057:	83 ee 01             	sub    $0x1,%esi
 804905a:	75 ea                	jne    8049046 <phase_8+0xd2>
 804905c:	8b 44 24 3c          	mov    0x3c(%esp),%eax
 8049060:	65 33 05 14 00 00 00 	xor    %gs:0x14,%eax
 8049067:	74 05                	je     804906e <phase_8+0xfa>
 8049069:	e8 92 f7 ff ff       	call   8048800 <__stack_chk_fail@plt>
 804906e:	83 c4 44             	add    $0x44,%esp
 8049071:	5b                   	pop    %ebx
 8049072:	5e                   	pop    %esi
 8049073:	c3                   	ret    

08049074 <fun9>:
 8049074:	53                   	push   %ebx
 8049075:	83 ec 08             	sub    $0x8,%esp
 8049078:	8b 54 24 10          	mov    0x10(%esp),%edx
 804907c:	8b 4c 24 14          	mov    0x14(%esp),%ecx
 8049080:	85 d2                	test   %edx,%edx
 8049082:	74 37                	je     80490bb <fun9+0x47>
 8049084:	8b 1a                	mov    (%edx),%ebx
 8049086:	39 cb                	cmp    %ecx,%ebx
 8049088:	7e 13                	jle    804909d <fun9+0x29>
 804908a:	83 ec 08             	sub    $0x8,%esp
 804908d:	51                   	push   %ecx
 804908e:	ff 72 04             	pushl  0x4(%edx)
 8049091:	e8 de ff ff ff       	call   8049074 <fun9>
 8049096:	83 c4 10             	add    $0x10,%esp
 8049099:	01 c0                	add    %eax,%eax
 804909b:	eb 23                	jmp    80490c0 <fun9+0x4c>
 804909d:	b8 00 00 00 00       	mov    $0x0,%eax
 80490a2:	39 cb                	cmp    %ecx,%ebx
 80490a4:	74 1a                	je     80490c0 <fun9+0x4c>
 80490a6:	83 ec 08             	sub    $0x8,%esp
 80490a9:	51                   	push   %ecx
 80490aa:	ff 72 08             	pushl  0x8(%edx)
 80490ad:	e8 c2 ff ff ff       	call   8049074 <fun9>
 80490b2:	83 c4 10             	add    $0x10,%esp
 80490b5:	8d 44 00 01          	lea    0x1(%eax,%eax,1),%eax
 80490b9:	eb 05                	jmp    80490c0 <fun9+0x4c>
 80490bb:	b8 ff ff ff ff       	mov    $0xffffffff,%eax
 80490c0:	83 c4 08             	add    $0x8,%esp
 80490c3:	5b                   	pop    %ebx
 80490c4:	c3                   	ret    

080490c5 <phase_9>:
 80490c5:	53                   	push   %ebx
 80490c6:	83 ec 0c             	sub    $0xc,%esp
 80490c9:	6a 0a                	push   $0xa
 80490cb:	6a 00                	push   $0x0
 80490cd:	ff 74 24 1c          	pushl  0x1c(%esp)
 80490d1:	e8 4a f8 ff ff       	call   8048920 <strtol@plt>
 80490d6:	89 c3                	mov    %eax,%ebx
 80490d8:	8d 40 ff             	lea    -0x1(%eax),%eax
 80490db:	83 c4 10             	add    $0x10,%esp
 80490de:	3d ec 03 00 00       	cmp    $0x3ec,%eax
 80490e3:	76 05                	jbe    80490ea <phase_9+0x25>
 80490e5:	e8 72 03 00 00       	call   804945c <explode_bomb>
 80490ea:	83 ec 08             	sub    $0x8,%esp
 80490ed:	53                   	push   %ebx
 80490ee:	68 a0 d0 04 08       	push   $0x804d0a0
 80490f3:	e8 7c ff ff ff       	call   8049074 <fun9>
 80490f8:	83 c4 10             	add    $0x10,%esp
 80490fb:	83 f8 06             	cmp    $0x6,%eax
 80490fe:	74 05                	je     8049105 <phase_9+0x40>
 8049100:	e8 57 03 00 00       	call   804945c <explode_bomb>
 8049105:	83 c4 08             	add    $0x8,%esp
 8049108:	5b                   	pop    %ebx
 8049109:	c3                   	ret    

0804910a <sig_handler>:
 804910a:	83 ec 18             	sub    $0x18,%esp
 804910d:	68 20 a4 04 08       	push   $0x804a420
 8049112:	e8 39 f7 ff ff       	call   8048850 <puts@plt>
 8049117:	c7 04 24 03 00 00 00 	movl   $0x3,(%esp)
 804911e:	e8 bd f6 ff ff       	call   80487e0 <sleep@plt>
 8049123:	83 c4 08             	add    $0x8,%esp
 8049126:	68 7d a5 04 08       	push   $0x804a57d
 804912b:	6a 01                	push   $0x1
 804912d:	e8 ae f7 ff ff       	call   80488e0 <__printf_chk@plt>
 8049132:	83 c4 04             	add    $0x4,%esp
 8049135:	ff 35 e4 d7 04 08    	pushl  0x804d7e4
 804913b:	e8 70 f6 ff ff       	call   80487b0 <fflush@plt>
 8049140:	c7 04 24 01 00 00 00 	movl   $0x1,(%esp)
 8049147:	e8 94 f6 ff ff       	call   80487e0 <sleep@plt>
 804914c:	c7 04 24 85 a5 04 08 	movl   $0x804a585,(%esp)
 8049153:	e8 f8 f6 ff ff       	call   8048850 <puts@plt>
 8049158:	c7 04 24 10 00 00 00 	movl   $0x10,(%esp)
 804915f:	e8 0c f7 ff ff       	call   8048870 <exit@plt>

08049164 <invalid_phase>:
 8049164:	83 ec 10             	sub    $0x10,%esp
 8049167:	ff 74 24 14          	pushl  0x14(%esp)
 804916b:	68 8d a5 04 08       	push   $0x804a58d
 8049170:	6a 01                	push   $0x1
 8049172:	e8 69 f7 ff ff       	call   80488e0 <__printf_chk@plt>
 8049177:	c7 04 24 08 00 00 00 	movl   $0x8,(%esp)
 804917e:	e8 ed f6 ff ff       	call   8048870 <exit@plt>

08049183 <string_length>:
 8049183:	8b 54 24 04          	mov    0x4(%esp),%edx
 8049187:	80 3a 00             	cmpb   $0x0,(%edx)
 804918a:	74 10                	je     804919c <string_length+0x19>
 804918c:	b8 00 00 00 00       	mov    $0x0,%eax
 8049191:	83 c0 01             	add    $0x1,%eax
 8049194:	80 3c 02 00          	cmpb   $0x0,(%edx,%eax,1)
 8049198:	75 f7                	jne    8049191 <string_length+0xe>
 804919a:	f3 c3                	repz ret 
 804919c:	b8 00 00 00 00       	mov    $0x0,%eax
 80491a1:	c3                   	ret    

080491a2 <strings_not_equal>:
 80491a2:	57                   	push   %edi
 80491a3:	56                   	push   %esi
 80491a4:	53                   	push   %ebx
 80491a5:	8b 5c 24 10          	mov    0x10(%esp),%ebx
 80491a9:	8b 74 24 14          	mov    0x14(%esp),%esi
 80491ad:	53                   	push   %ebx
 80491ae:	e8 d0 ff ff ff       	call   8049183 <string_length>
 80491b3:	89 c7                	mov    %eax,%edi
 80491b5:	89 34 24             	mov    %esi,(%esp)
 80491b8:	e8 c6 ff ff ff       	call   8049183 <string_length>
 80491bd:	83 c4 04             	add    $0x4,%esp
 80491c0:	ba 01 00 00 00       	mov    $0x1,%edx
 80491c5:	39 c7                	cmp    %eax,%edi
 80491c7:	75 38                	jne    8049201 <strings_not_equal+0x5f>
 80491c9:	0f b6 03             	movzbl (%ebx),%eax
 80491cc:	84 c0                	test   %al,%al
 80491ce:	74 1e                	je     80491ee <strings_not_equal+0x4c>
 80491d0:	3a 06                	cmp    (%esi),%al
 80491d2:	74 06                	je     80491da <strings_not_equal+0x38>
 80491d4:	eb 1f                	jmp    80491f5 <strings_not_equal+0x53>
 80491d6:	3a 06                	cmp    (%esi),%al
 80491d8:	75 22                	jne    80491fc <strings_not_equal+0x5a>
 80491da:	83 c3 01             	add    $0x1,%ebx
 80491dd:	83 c6 01             	add    $0x1,%esi
 80491e0:	0f b6 03             	movzbl (%ebx),%eax
 80491e3:	84 c0                	test   %al,%al
 80491e5:	75 ef                	jne    80491d6 <strings_not_equal+0x34>
 80491e7:	ba 00 00 00 00       	mov    $0x0,%edx
 80491ec:	eb 13                	jmp    8049201 <strings_not_equal+0x5f>
 80491ee:	ba 00 00 00 00       	mov    $0x0,%edx
 80491f3:	eb 0c                	jmp    8049201 <strings_not_equal+0x5f>
 80491f5:	ba 01 00 00 00       	mov    $0x1,%edx
 80491fa:	eb 05                	jmp    8049201 <strings_not_equal+0x5f>
 80491fc:	ba 01 00 00 00       	mov    $0x1,%edx
 8049201:	89 d0                	mov    %edx,%eax
 8049203:	5b                   	pop    %ebx
 8049204:	5e                   	pop    %esi
 8049205:	5f                   	pop    %edi
 8049206:	c3                   	ret    

08049207 <initialize_bomb>:
 8049207:	56                   	push   %esi
 8049208:	53                   	push   %ebx
 8049209:	81 ec 5c 20 00 00    	sub    $0x205c,%esp
 804920f:	65 a1 14 00 00 00    	mov    %gs:0x14,%eax
 8049215:	89 84 24 54 20 00 00 	mov    %eax,0x2054(%esp)
 804921c:	31 c0                	xor    %eax,%eax
 804921e:	68 0a 91 04 08       	push   $0x804910a
 8049223:	6a 02                	push   $0x2
 8049225:	e8 a6 f5 ff ff       	call   80487d0 <signal@plt>
 804922a:	83 c4 08             	add    $0x8,%esp
 804922d:	6a 40                	push   $0x40
 804922f:	8d 44 24 18          	lea    0x18(%esp),%eax
 8049233:	50                   	push   %eax
 8049234:	e8 e7 f5 ff ff       	call   8048820 <gethostname@plt>
 8049239:	83 c4 10             	add    $0x10,%esp
 804923c:	85 c0                	test   %eax,%eax
 804923e:	75 14                	jne    8049254 <initialize_bomb+0x4d>
 8049240:	a1 c0 d5 04 08       	mov    0x804d5c0,%eax
 8049245:	bb c4 d5 04 08       	mov    $0x804d5c4,%ebx
 804924a:	8d 74 24 0c          	lea    0xc(%esp),%esi
 804924e:	85 c0                	test   %eax,%eax
 8049250:	75 1b                	jne    804926d <initialize_bomb+0x66>
 8049252:	eb 56                	jmp    80492aa <initialize_bomb+0xa3>
 8049254:	83 ec 0c             	sub    $0xc,%esp
 8049257:	68 58 a4 04 08       	push   $0x804a458
 804925c:	e8 ef f5 ff ff       	call   8048850 <puts@plt>
 8049261:	c7 04 24 08 00 00 00 	movl   $0x8,(%esp)
 8049268:	e8 03 f6 ff ff       	call   8048870 <exit@plt>
 804926d:	83 ec 08             	sub    $0x8,%esp
 8049270:	56                   	push   %esi
 8049271:	50                   	push   %eax
 8049272:	e8 29 f6 ff ff       	call   80488a0 <strcasecmp@plt>
 8049277:	83 c4 10             	add    $0x10,%esp
 804927a:	85 c0                	test   %eax,%eax
 804927c:	74 45                	je     80492c3 <initialize_bomb+0xbc>
 804927e:	83 c3 04             	add    $0x4,%ebx
 8049281:	8b 43 fc             	mov    -0x4(%ebx),%eax
 8049284:	85 c0                	test   %eax,%eax
 8049286:	75 e5                	jne    804926d <initialize_bomb+0x66>
 8049288:	eb 20                	jmp    80492aa <initialize_bomb+0xa3>
 804928a:	83 ec 04             	sub    $0x4,%esp
 804928d:	8d 44 24 50          	lea    0x50(%esp),%eax
 8049291:	50                   	push   %eax
 8049292:	68 9e a5 04 08       	push   $0x804a59e
 8049297:	6a 01                	push   $0x1
 8049299:	e8 42 f6 ff ff       	call   80488e0 <__printf_chk@plt>
 804929e:	c7 04 24 08 00 00 00 	movl   $0x8,(%esp)
 80492a5:	e8 c6 f5 ff ff       	call   8048870 <exit@plt>
 80492aa:	83 ec 0c             	sub    $0xc,%esp
 80492ad:	68 90 a4 04 08       	push   $0x804a490
 80492b2:	e8 99 f5 ff ff       	call   8048850 <puts@plt>
 80492b7:	c7 04 24 08 00 00 00 	movl   $0x8,(%esp)
 80492be:	e8 ad f5 ff ff       	call   8048870 <exit@plt>
 80492c3:	83 ec 0c             	sub    $0xc,%esp
 80492c6:	8d 44 24 58          	lea    0x58(%esp),%eax
 80492ca:	50                   	push   %eax
 80492cb:	e8 29 0c 00 00       	call   8049ef9 <init_driver>
 80492d0:	83 c4 10             	add    $0x10,%esp
 80492d3:	85 c0                	test   %eax,%eax
 80492d5:	78 b3                	js     804928a <initialize_bomb+0x83>
 80492d7:	8b 84 24 4c 20 00 00 	mov    0x204c(%esp),%eax
 80492de:	65 33 05 14 00 00 00 	xor    %gs:0x14,%eax
 80492e5:	74 05                	je     80492ec <initialize_bomb+0xe5>
 80492e7:	e8 14 f5 ff ff       	call   8048800 <__stack_chk_fail@plt>
 80492ec:	81 c4 54 20 00 00    	add    $0x2054,%esp
 80492f2:	5b                   	pop    %ebx
 80492f3:	5e                   	pop    %esi
 80492f4:	c3                   	ret    

080492f5 <initialize_bomb_solve>:
 80492f5:	f3 c3                	repz ret 

080492f7 <blank_line>:
 80492f7:	56                   	push   %esi
 80492f8:	53                   	push   %ebx
 80492f9:	83 ec 04             	sub    $0x4,%esp
 80492fc:	8b 74 24 10          	mov    0x10(%esp),%esi
 8049300:	eb 14                	jmp    8049316 <blank_line+0x1f>
 8049302:	e8 49 f6 ff ff       	call   8048950 <__ctype_b_loc@plt>
 8049307:	83 c6 01             	add    $0x1,%esi
 804930a:	0f be db             	movsbl %bl,%ebx
 804930d:	8b 00                	mov    (%eax),%eax
 804930f:	f6 44 58 01 20       	testb  $0x20,0x1(%eax,%ebx,2)
 8049314:	74 0e                	je     8049324 <blank_line+0x2d>
 8049316:	0f b6 1e             	movzbl (%esi),%ebx
 8049319:	84 db                	test   %bl,%bl
 804931b:	75 e5                	jne    8049302 <blank_line+0xb>
 804931d:	b8 01 00 00 00       	mov    $0x1,%eax
 8049322:	eb 05                	jmp    8049329 <blank_line+0x32>
 8049324:	b8 00 00 00 00       	mov    $0x0,%eax
 8049329:	83 c4 04             	add    $0x4,%esp
 804932c:	5b                   	pop    %ebx
 804932d:	5e                   	pop    %esi
 804932e:	c3                   	ret    

0804932f <skip>:
 804932f:	53                   	push   %ebx
 8049330:	83 ec 08             	sub    $0x8,%esp
 8049333:	83 ec 04             	sub    $0x4,%esp
 8049336:	ff 35 f0 d7 04 08    	pushl  0x804d7f0
 804933c:	6a 50                	push   $0x50
 804933e:	a1 ec d7 04 08       	mov    0x804d7ec,%eax
 8049343:	8d 04 80             	lea    (%eax,%eax,4),%eax
 8049346:	c1 e0 04             	shl    $0x4,%eax
 8049349:	05 00 d8 04 08       	add    $0x804d800,%eax
 804934e:	50                   	push   %eax
 804934f:	e8 6c f4 ff ff       	call   80487c0 <fgets@plt>
 8049354:	89 c3                	mov    %eax,%ebx
 8049356:	83 c4 10             	add    $0x10,%esp
 8049359:	85 c0                	test   %eax,%eax
 804935b:	74 10                	je     804936d <skip+0x3e>
 804935d:	83 ec 0c             	sub    $0xc,%esp
 8049360:	50                   	push   %eax
 8049361:	e8 91 ff ff ff       	call   80492f7 <blank_line>
 8049366:	83 c4 10             	add    $0x10,%esp
 8049369:	85 c0                	test   %eax,%eax
 804936b:	75 c6                	jne    8049333 <skip+0x4>
 804936d:	89 d8                	mov    %ebx,%eax
 804936f:	83 c4 08             	add    $0x8,%esp
 8049372:	5b                   	pop    %ebx
 8049373:	c3                   	ret    

08049374 <send_msg>:
 8049374:	57                   	push   %edi
 8049375:	53                   	push   %ebx
 8049376:	81 ec 14 40 00 00    	sub    $0x4014,%esp
 804937c:	65 a1 14 00 00 00    	mov    %gs:0x14,%eax
 8049382:	89 84 24 0c 40 00 00 	mov    %eax,0x400c(%esp)
 8049389:	31 c0                	xor    %eax,%eax
 804938b:	8b 1d ec d7 04 08    	mov    0x804d7ec,%ebx
 8049391:	8d 54 9b fb          	lea    -0x5(%ebx,%ebx,4),%edx
 8049395:	c1 e2 04             	shl    $0x4,%edx
 8049398:	81 c2 00 d8 04 08    	add    $0x804d800,%edx
 804939e:	b9 ff ff ff ff       	mov    $0xffffffff,%ecx
 80493a3:	89 d7                	mov    %edx,%edi
 80493a5:	f2 ae                	repnz scas %es:(%edi),%al
 80493a7:	f7 d1                	not    %ecx
 80493a9:	83 c1 63             	add    $0x63,%ecx
 80493ac:	81 f9 00 20 00 00    	cmp    $0x2000,%ecx
 80493b2:	76 1b                	jbe    80493cf <send_msg+0x5b>
 80493b4:	83 ec 08             	sub    $0x8,%esp
 80493b7:	68 c8 a4 04 08       	push   $0x804a4c8
 80493bc:	6a 01                	push   $0x1
 80493be:	e8 1d f5 ff ff       	call   80488e0 <__printf_chk@plt>
 80493c3:	c7 04 24 08 00 00 00 	movl   $0x8,(%esp)
 80493ca:	e8 a1 f4 ff ff       	call   8048870 <exit@plt>
 80493cf:	83 bc 24 20 40 00 00 	cmpl   $0x0,0x4020(%esp)
 80493d6:	00 
 80493d7:	b9 c0 a5 04 08       	mov    $0x804a5c0,%ecx
 80493dc:	b8 b8 a5 04 08       	mov    $0x804a5b8,%eax
 80493e1:	0f 44 c1             	cmove  %ecx,%eax
 80493e4:	52                   	push   %edx
 80493e5:	53                   	push   %ebx
 80493e6:	50                   	push   %eax
 80493e7:	ff 35 a0 d5 04 08    	pushl  0x804d5a0
 80493ed:	68 c9 a5 04 08       	push   $0x804a5c9
 80493f2:	68 00 20 00 00       	push   $0x2000
 80493f7:	6a 01                	push   $0x1
 80493f9:	8d 5c 24 28          	lea    0x28(%esp),%ebx
 80493fd:	53                   	push   %ebx
 80493fe:	e8 5d f5 ff ff       	call   8048960 <__sprintf_chk@plt>
 8049403:	83 c4 20             	add    $0x20,%esp
 8049406:	8d 84 24 0c 20 00 00 	lea    0x200c(%esp),%eax
 804940d:	50                   	push   %eax
 804940e:	6a 00                	push   $0x0
 8049410:	53                   	push   %ebx
 8049411:	68 a0 d1 04 08       	push   $0x804d1a0
 8049416:	e8 b0 0c 00 00       	call   804a0cb <driver_post>
 804941b:	83 c4 10             	add    $0x10,%esp
 804941e:	85 c0                	test   %eax,%eax
 8049420:	79 1c                	jns    804943e <send_msg+0xca>
 8049422:	83 ec 0c             	sub    $0xc,%esp
 8049425:	8d 84 24 18 20 00 00 	lea    0x2018(%esp),%eax
 804942c:	50                   	push   %eax
 804942d:	e8 1e f4 ff ff       	call   8048850 <puts@plt>
 8049432:	c7 04 24 00 00 00 00 	movl   $0x0,(%esp)
 8049439:	e8 32 f4 ff ff       	call   8048870 <exit@plt>
 804943e:	8b 84 24 0c 40 00 00 	mov    0x400c(%esp),%eax
 8049445:	65 33 05 14 00 00 00 	xor    %gs:0x14,%eax
 804944c:	74 05                	je     8049453 <send_msg+0xdf>
 804944e:	e8 ad f3 ff ff       	call   8048800 <__stack_chk_fail@plt>
 8049453:	81 c4 14 40 00 00    	add    $0x4014,%esp
 8049459:	5b                   	pop    %ebx
 804945a:	5f                   	pop    %edi
 804945b:	c3                   	ret    

0804945c <explode_bomb>:
 804945c:	83 ec 18             	sub    $0x18,%esp
 804945f:	68 d5 a5 04 08       	push   $0x804a5d5
 8049464:	e8 e7 f3 ff ff       	call   8048850 <puts@plt>
 8049469:	c7 04 24 de a5 04 08 	movl   $0x804a5de,(%esp)
 8049470:	e8 db f3 ff ff       	call   8048850 <puts@plt>
 8049475:	c7 04 24 00 00 00 00 	movl   $0x0,(%esp)
 804947c:	e8 f3 fe ff ff       	call   8049374 <send_msg>
 8049481:	c7 04 24 ec a4 04 08 	movl   $0x804a4ec,(%esp)
 8049488:	e8 c3 f3 ff ff       	call   8048850 <puts@plt>
 804948d:	c7 04 24 08 00 00 00 	movl   $0x8,(%esp)
 8049494:	e8 d7 f3 ff ff       	call   8048870 <exit@plt>

08049499 <read_six_numbers>:
 8049499:	83 ec 0c             	sub    $0xc,%esp
 804949c:	8b 44 24 14          	mov    0x14(%esp),%eax
 80494a0:	8d 50 14             	lea    0x14(%eax),%edx
 80494a3:	52                   	push   %edx
 80494a4:	8d 50 10             	lea    0x10(%eax),%edx
 80494a7:	52                   	push   %edx
 80494a8:	8d 50 0c             	lea    0xc(%eax),%edx
 80494ab:	52                   	push   %edx
 80494ac:	8d 50 08             	lea    0x8(%eax),%edx
 80494af:	52                   	push   %edx
 80494b0:	8d 50 04             	lea    0x4(%eax),%edx
 80494b3:	52                   	push   %edx
 80494b4:	50                   	push   %eax
 80494b5:	68 f5 a5 04 08       	push   $0x804a5f5
 80494ba:	ff 74 24 2c          	pushl  0x2c(%esp)
 80494be:	e8 ed f3 ff ff       	call   80488b0 <__isoc99_sscanf@plt>
 80494c3:	83 c4 20             	add    $0x20,%esp
 80494c6:	83 f8 05             	cmp    $0x5,%eax
 80494c9:	7f 05                	jg     80494d0 <read_six_numbers+0x37>
 80494cb:	e8 8c ff ff ff       	call   804945c <explode_bomb>
 80494d0:	83 c4 0c             	add    $0xc,%esp
 80494d3:	c3                   	ret    

080494d4 <read_line>:
 80494d4:	57                   	push   %edi
 80494d5:	56                   	push   %esi
 80494d6:	53                   	push   %ebx
 80494d7:	e8 53 fe ff ff       	call   804932f <skip>
 80494dc:	85 c0                	test   %eax,%eax
 80494de:	75 70                	jne    8049550 <read_line+0x7c>
 80494e0:	a1 e0 d7 04 08       	mov    0x804d7e0,%eax
 80494e5:	39 05 f0 d7 04 08    	cmp    %eax,0x804d7f0
 80494eb:	75 19                	jne    8049506 <read_line+0x32>
 80494ed:	83 ec 0c             	sub    $0xc,%esp
 80494f0:	68 07 a6 04 08       	push   $0x804a607
 80494f5:	e8 56 f3 ff ff       	call   8048850 <puts@plt>
 80494fa:	c7 04 24 08 00 00 00 	movl   $0x8,(%esp)
 8049501:	e8 6a f3 ff ff       	call   8048870 <exit@plt>
 8049506:	83 ec 0c             	sub    $0xc,%esp
 8049509:	68 25 a6 04 08       	push   $0x804a625
 804950e:	e8 1d f3 ff ff       	call   8048830 <getenv@plt>
 8049513:	83 c4 10             	add    $0x10,%esp
 8049516:	85 c0                	test   %eax,%eax
 8049518:	74 0a                	je     8049524 <read_line+0x50>
 804951a:	83 ec 0c             	sub    $0xc,%esp
 804951d:	6a 00                	push   $0x0
 804951f:	e8 4c f3 ff ff       	call   8048870 <exit@plt>
 8049524:	a1 e0 d7 04 08       	mov    0x804d7e0,%eax
 8049529:	a3 f0 d7 04 08       	mov    %eax,0x804d7f0
 804952e:	e8 fc fd ff ff       	call   804932f <skip>
 8049533:	85 c0                	test   %eax,%eax
 8049535:	75 19                	jne    8049550 <read_line+0x7c>
 8049537:	83 ec 0c             	sub    $0xc,%esp
 804953a:	68 07 a6 04 08       	push   $0x804a607
 804953f:	e8 0c f3 ff ff       	call   8048850 <puts@plt>
 8049544:	c7 04 24 00 00 00 00 	movl   $0x0,(%esp)
 804954b:	e8 20 f3 ff ff       	call   8048870 <exit@plt>
 8049550:	8b 15 ec d7 04 08    	mov    0x804d7ec,%edx
 8049556:	8d 1c 92             	lea    (%edx,%edx,4),%ebx
 8049559:	c1 e3 04             	shl    $0x4,%ebx
 804955c:	81 c3 00 d8 04 08    	add    $0x804d800,%ebx
 8049562:	b8 00 00 00 00       	mov    $0x0,%eax
 8049567:	b9 ff ff ff ff       	mov    $0xffffffff,%ecx
 804956c:	89 df                	mov    %ebx,%edi
 804956e:	f2 ae                	repnz scas %es:(%edi),%al
 8049570:	f7 d1                	not    %ecx
 8049572:	83 e9 01             	sub    $0x1,%ecx
 8049575:	83 f9 4e             	cmp    $0x4e,%ecx
 8049578:	7e 36                	jle    80495b0 <read_line+0xdc>
 804957a:	83 ec 0c             	sub    $0xc,%esp
 804957d:	68 30 a6 04 08       	push   $0x804a630
 8049582:	e8 c9 f2 ff ff       	call   8048850 <puts@plt>
 8049587:	a1 ec d7 04 08       	mov    0x804d7ec,%eax
 804958c:	8d 50 01             	lea    0x1(%eax),%edx
 804958f:	89 15 ec d7 04 08    	mov    %edx,0x804d7ec
 8049595:	6b c0 50             	imul   $0x50,%eax,%eax
 8049598:	05 00 d8 04 08       	add    $0x804d800,%eax
 804959d:	be 4b a6 04 08       	mov    $0x804a64b,%esi
 80495a2:	b9 04 00 00 00       	mov    $0x4,%ecx
 80495a7:	89 c7                	mov    %eax,%edi
 80495a9:	f3 a5                	rep movsl %ds:(%esi),%es:(%edi)
 80495ab:	e8 ac fe ff ff       	call   804945c <explode_bomb>
 80495b0:	8d 04 92             	lea    (%edx,%edx,4),%eax
 80495b3:	c1 e0 04             	shl    $0x4,%eax
 80495b6:	c6 84 01 ff d7 04 08 	movb   $0x0,0x804d7ff(%ecx,%eax,1)
 80495bd:	00 
 80495be:	83 c2 01             	add    $0x1,%edx
 80495c1:	89 15 ec d7 04 08    	mov    %edx,0x804d7ec
 80495c7:	89 d8                	mov    %ebx,%eax
 80495c9:	5b                   	pop    %ebx
 80495ca:	5e                   	pop    %esi
 80495cb:	5f                   	pop    %edi
 80495cc:	c3                   	ret    

080495cd <phase_defused>:
 80495cd:	83 ec 18             	sub    $0x18,%esp
 80495d0:	6a 01                	push   $0x1
 80495d2:	e8 9d fd ff ff       	call   8049374 <send_msg>
 80495d7:	83 c4 10             	add    $0x10,%esp
 80495da:	83 3d ec d7 04 08 09 	cmpl   $0x9,0x804d7ec
 80495e1:	75 1c                	jne    80495ff <phase_defused+0x32>
 80495e3:	83 ec 0c             	sub    $0xc,%esp
 80495e6:	68 10 a5 04 08       	push   $0x804a510
 80495eb:	e8 60 f2 ff ff       	call   8048850 <puts@plt>
 80495f0:	c7 04 24 3c a5 04 08 	movl   $0x804a53c,(%esp)
 80495f7:	e8 54 f2 ff ff       	call   8048850 <puts@plt>
 80495fc:	83 c4 10             	add    $0x10,%esp
 80495ff:	83 c4 0c             	add    $0xc,%esp
 8049602:	c3                   	ret    

08049603 <sigalrm_handler>:
 8049603:	83 ec 0c             	sub    $0xc,%esp
 8049606:	6a 00                	push   $0x0
 8049608:	68 44 aa 04 08       	push   $0x804aa44
 804960d:	6a 01                	push   $0x1
 804960f:	ff 35 c0 d7 04 08    	pushl  0x804d7c0
 8049615:	e8 e6 f2 ff ff       	call   8048900 <__fprintf_chk@plt>
 804961a:	c7 04 24 01 00 00 00 	movl   $0x1,(%esp)
 8049621:	e8 4a f2 ff ff       	call   8048870 <exit@plt>

08049626 <rio_readlineb>:
 8049626:	55                   	push   %ebp
 8049627:	57                   	push   %edi
 8049628:	56                   	push   %esi
 8049629:	53                   	push   %ebx
 804962a:	83 ec 2c             	sub    $0x2c,%esp
 804962d:	89 d7                	mov    %edx,%edi
 804962f:	89 4c 24 0c          	mov    %ecx,0xc(%esp)
 8049633:	65 8b 15 14 00 00 00 	mov    %gs:0x14,%edx
 804963a:	89 54 24 1c          	mov    %edx,0x1c(%esp)
 804963e:	31 d2                	xor    %edx,%edx
 8049640:	83 f9 01             	cmp    $0x1,%ecx
 8049643:	76 79                	jbe    80496be <rio_readlineb+0x98>
 8049645:	89 c3                	mov    %eax,%ebx
 8049647:	89 4c 24 08          	mov    %ecx,0x8(%esp)
 804964b:	bd 01 00 00 00       	mov    $0x1,%ebp
 8049650:	8d 73 0c             	lea    0xc(%ebx),%esi
 8049653:	eb 2d                	jmp    8049682 <rio_readlineb+0x5c>
 8049655:	83 ec 04             	sub    $0x4,%esp
 8049658:	68 00 20 00 00       	push   $0x2000
 804965d:	56                   	push   %esi
 804965e:	ff 33                	pushl  (%ebx)
 8049660:	e8 3b f1 ff ff       	call   80487a0 <read@plt>
 8049665:	89 43 04             	mov    %eax,0x4(%ebx)
 8049668:	83 c4 10             	add    $0x10,%esp
 804966b:	85 c0                	test   %eax,%eax
 804966d:	79 0c                	jns    804967b <rio_readlineb+0x55>
 804966f:	e8 5c f2 ff ff       	call   80488d0 <__errno_location@plt>
 8049674:	83 38 04             	cmpl   $0x4,(%eax)
 8049677:	74 09                	je     8049682 <rio_readlineb+0x5c>
 8049679:	eb 62                	jmp    80496dd <rio_readlineb+0xb7>
 804967b:	85 c0                	test   %eax,%eax
 804967d:	74 63                	je     80496e2 <rio_readlineb+0xbc>
 804967f:	89 73 08             	mov    %esi,0x8(%ebx)
 8049682:	8b 43 04             	mov    0x4(%ebx),%eax
 8049685:	85 c0                	test   %eax,%eax
 8049687:	7e cc                	jle    8049655 <rio_readlineb+0x2f>
 8049689:	8b 4b 08             	mov    0x8(%ebx),%ecx
 804968c:	0f b6 11             	movzbl (%ecx),%edx
 804968f:	88 54 24 1b          	mov    %dl,0x1b(%esp)
 8049693:	83 c1 01             	add    $0x1,%ecx
 8049696:	89 4b 08             	mov    %ecx,0x8(%ebx)
 8049699:	83 e8 01             	sub    $0x1,%eax
 804969c:	89 43 04             	mov    %eax,0x4(%ebx)
 804969f:	83 c7 01             	add    $0x1,%edi
 80496a2:	88 57 ff             	mov    %dl,-0x1(%edi)
 80496a5:	80 fa 0a             	cmp    $0xa,%dl
 80496a8:	75 09                	jne    80496b3 <rio_readlineb+0x8d>
 80496aa:	eb 1d                	jmp    80496c9 <rio_readlineb+0xa3>
 80496ac:	83 fd 01             	cmp    $0x1,%ebp
 80496af:	75 18                	jne    80496c9 <rio_readlineb+0xa3>
 80496b1:	eb 1b                	jmp    80496ce <rio_readlineb+0xa8>
 80496b3:	83 c5 01             	add    $0x1,%ebp
 80496b6:	3b 6c 24 08          	cmp    0x8(%esp),%ebp
 80496ba:	74 09                	je     80496c5 <rio_readlineb+0x9f>
 80496bc:	eb c4                	jmp    8049682 <rio_readlineb+0x5c>
 80496be:	bd 01 00 00 00       	mov    $0x1,%ebp
 80496c3:	eb 04                	jmp    80496c9 <rio_readlineb+0xa3>
 80496c5:	8b 6c 24 0c          	mov    0xc(%esp),%ebp
 80496c9:	c6 07 00             	movb   $0x0,(%edi)
 80496cc:	89 e8                	mov    %ebp,%eax
 80496ce:	8b 54 24 1c          	mov    0x1c(%esp),%edx
 80496d2:	65 33 15 14 00 00 00 	xor    %gs:0x14,%edx
 80496d9:	74 17                	je     80496f2 <rio_readlineb+0xcc>
 80496db:	eb 10                	jmp    80496ed <rio_readlineb+0xc7>
 80496dd:	b8 ff ff ff ff       	mov    $0xffffffff,%eax
 80496e2:	85 c0                	test   %eax,%eax
 80496e4:	74 c6                	je     80496ac <rio_readlineb+0x86>
 80496e6:	b8 ff ff ff ff       	mov    $0xffffffff,%eax
 80496eb:	eb e1                	jmp    80496ce <rio_readlineb+0xa8>
 80496ed:	e8 0e f1 ff ff       	call   8048800 <__stack_chk_fail@plt>
 80496f2:	83 c4 2c             	add    $0x2c,%esp
 80496f5:	5b                   	pop    %ebx
 80496f6:	5e                   	pop    %esi
 80496f7:	5f                   	pop    %edi
 80496f8:	5d                   	pop    %ebp
 80496f9:	c3                   	ret    

080496fa <submitr>:
 80496fa:	55                   	push   %ebp
 80496fb:	57                   	push   %edi
 80496fc:	56                   	push   %esi
 80496fd:	53                   	push   %ebx
 80496fe:	81 ec 60 a0 00 00    	sub    $0xa060,%esp
 8049704:	8b b4 24 74 a0 00 00 	mov    0xa074(%esp),%esi
 804970b:	8b 84 24 7c a0 00 00 	mov    0xa07c(%esp),%eax
 8049712:	89 44 24 10          	mov    %eax,0x10(%esp)
 8049716:	8b 84 24 80 a0 00 00 	mov    0xa080(%esp),%eax
 804971d:	89 44 24 14          	mov    %eax,0x14(%esp)
 8049721:	8b 84 24 84 a0 00 00 	mov    0xa084(%esp),%eax
 8049728:	89 44 24 18          	mov    %eax,0x18(%esp)
 804972c:	8b 9c 24 88 a0 00 00 	mov    0xa088(%esp),%ebx
 8049733:	8b 84 24 8c a0 00 00 	mov    0xa08c(%esp),%eax
 804973a:	89 44 24 1c          	mov    %eax,0x1c(%esp)
 804973e:	65 a1 14 00 00 00    	mov    %gs:0x14,%eax
 8049744:	89 84 24 50 a0 00 00 	mov    %eax,0xa050(%esp)
 804974b:	31 c0                	xor    %eax,%eax
 804974d:	c7 44 24 30 00 00 00 	movl   $0x0,0x30(%esp)
 8049754:	00 
 8049755:	6a 00                	push   $0x0
 8049757:	6a 01                	push   $0x1
 8049759:	6a 02                	push   $0x2
 804975b:	e8 90 f1 ff ff       	call   80488f0 <socket@plt>
 8049760:	89 44 24 18          	mov    %eax,0x18(%esp)
 8049764:	83 c4 10             	add    $0x10,%esp
 8049767:	85 c0                	test   %eax,%eax
 8049769:	79 52                	jns    80497bd <submitr+0xc3>
 804976b:	8b 44 24 18          	mov    0x18(%esp),%eax
 804976f:	c7 00 45 72 72 6f    	movl   $0x6f727245,(%eax)
 8049775:	c7 40 04 72 3a 20 43 	movl   $0x43203a72,0x4(%eax)
 804977c:	c7 40 08 6c 69 65 6e 	movl   $0x6e65696c,0x8(%eax)
 8049783:	c7 40 0c 74 20 75 6e 	movl   $0x6e752074,0xc(%eax)
 804978a:	c7 40 10 61 62 6c 65 	movl   $0x656c6261,0x10(%eax)
 8049791:	c7 40 14 20 74 6f 20 	movl   $0x206f7420,0x14(%eax)
 8049798:	c7 40 18 63 72 65 61 	movl   $0x61657263,0x18(%eax)
 804979f:	c7 40 1c 74 65 20 73 	movl   $0x73206574,0x1c(%eax)
 80497a6:	c7 40 20 6f 63 6b 65 	movl   $0x656b636f,0x20(%eax)
 80497ad:	66 c7 40 24 74 00    	movw   $0x74,0x24(%eax)
 80497b3:	b8 ff ff ff ff       	mov    $0xffffffff,%eax
 80497b8:	e9 3f 06 00 00       	jmp    8049dfc <submitr+0x702>
 80497bd:	83 ec 0c             	sub    $0xc,%esp
 80497c0:	56                   	push   %esi
 80497c1:	e8 4a f1 ff ff       	call   8048910 <gethostbyname@plt>
 80497c6:	83 c4 10             	add    $0x10,%esp
 80497c9:	85 c0                	test   %eax,%eax
 80497cb:	75 73                	jne    8049840 <submitr+0x146>
 80497cd:	8b 44 24 18          	mov    0x18(%esp),%eax
 80497d1:	c7 00 45 72 72 6f    	movl   $0x6f727245,(%eax)
 80497d7:	c7 40 04 72 3a 20 44 	movl   $0x44203a72,0x4(%eax)
 80497de:	c7 40 08 4e 53 20 69 	movl   $0x6920534e,0x8(%eax)
 80497e5:	c7 40 0c 73 20 75 6e 	movl   $0x6e752073,0xc(%eax)
 80497ec:	c7 40 10 61 62 6c 65 	movl   $0x656c6261,0x10(%eax)
 80497f3:	c7 40 14 20 74 6f 20 	movl   $0x206f7420,0x14(%eax)
 80497fa:	c7 40 18 72 65 73 6f 	movl   $0x6f736572,0x18(%eax)
 8049801:	c7 40 1c 6c 76 65 20 	movl   $0x2065766c,0x1c(%eax)
 8049808:	c7 40 20 73 65 72 76 	movl   $0x76726573,0x20(%eax)
 804980f:	c7 40 24 65 72 20 61 	movl   $0x61207265,0x24(%eax)
 8049816:	c7 40 28 64 64 72 65 	movl   $0x65726464,0x28(%eax)
 804981d:	66 c7 40 2c 73 73    	movw   $0x7373,0x2c(%eax)
 8049823:	c6 40 2e 00          	movb   $0x0,0x2e(%eax)
 8049827:	83 ec 0c             	sub    $0xc,%esp
 804982a:	ff 74 24 14          	pushl  0x14(%esp)
 804982e:	e8 0d f1 ff ff       	call   8048940 <close@plt>
 8049833:	83 c4 10             	add    $0x10,%esp
 8049836:	b8 ff ff ff ff       	mov    $0xffffffff,%eax
 804983b:	e9 bc 05 00 00       	jmp    8049dfc <submitr+0x702>
 8049840:	8d 74 24 30          	lea    0x30(%esp),%esi
 8049844:	c7 44 24 30 00 00 00 	movl   $0x0,0x30(%esp)
 804984b:	00 
 804984c:	c7 44 24 34 00 00 00 	movl   $0x0,0x34(%esp)
 8049853:	00 
 8049854:	c7 44 24 38 00 00 00 	movl   $0x0,0x38(%esp)
 804985b:	00 
 804985c:	c7 44 24 3c 00 00 00 	movl   $0x0,0x3c(%esp)
 8049863:	00 
 8049864:	66 c7 44 24 30 02 00 	movw   $0x2,0x30(%esp)
 804986b:	6a 0c                	push   $0xc
 804986d:	ff 70 0c             	pushl  0xc(%eax)
 8049870:	8b 40 10             	mov    0x10(%eax),%eax
 8049873:	ff 30                	pushl  (%eax)
 8049875:	8d 44 24 40          	lea    0x40(%esp),%eax
 8049879:	50                   	push   %eax
 804987a:	e8 e1 ef ff ff       	call   8048860 <__memmove_chk@plt>
 804987f:	0f b7 84 24 84 a0 00 	movzwl 0xa084(%esp),%eax
 8049886:	00 
 8049887:	66 c1 c8 08          	ror    $0x8,%ax
 804988b:	66 89 44 24 42       	mov    %ax,0x42(%esp)
 8049890:	83 c4 0c             	add    $0xc,%esp
 8049893:	6a 10                	push   $0x10
 8049895:	56                   	push   %esi
 8049896:	ff 74 24 14          	pushl  0x14(%esp)
 804989a:	e8 91 f0 ff ff       	call   8048930 <connect@plt>
 804989f:	83 c4 10             	add    $0x10,%esp
 80498a2:	85 c0                	test   %eax,%eax
 80498a4:	79 65                	jns    804990b <submitr+0x211>
 80498a6:	8b 44 24 18          	mov    0x18(%esp),%eax
 80498aa:	c7 00 45 72 72 6f    	movl   $0x6f727245,(%eax)
 80498b0:	c7 40 04 72 3a 20 55 	movl   $0x55203a72,0x4(%eax)
 80498b7:	c7 40 08 6e 61 62 6c 	movl   $0x6c62616e,0x8(%eax)
 80498be:	c7 40 0c 65 20 74 6f 	movl   $0x6f742065,0xc(%eax)
 80498c5:	c7 40 10 20 63 6f 6e 	movl   $0x6e6f6320,0x10(%eax)
 80498cc:	c7 40 14 6e 65 63 74 	movl   $0x7463656e,0x14(%eax)
 80498d3:	c7 40 18 20 74 6f 20 	movl   $0x206f7420,0x18(%eax)
 80498da:	c7 40 1c 74 68 65 20 	movl   $0x20656874,0x1c(%eax)
 80498e1:	c7 40 20 73 65 72 76 	movl   $0x76726573,0x20(%eax)
 80498e8:	66 c7 40 24 65 72    	movw   $0x7265,0x24(%eax)
 80498ee:	c6 40 26 00          	movb   $0x0,0x26(%eax)
 80498f2:	83 ec 0c             	sub    $0xc,%esp
 80498f5:	ff 74 24 14          	pushl  0x14(%esp)
 80498f9:	e8 42 f0 ff ff       	call   8048940 <close@plt>
 80498fe:	83 c4 10             	add    $0x10,%esp
 8049901:	b8 ff ff ff ff       	mov    $0xffffffff,%eax
 8049906:	e9 f1 04 00 00       	jmp    8049dfc <submitr+0x702>
 804990b:	be ff ff ff ff       	mov    $0xffffffff,%esi
 8049910:	b8 00 00 00 00       	mov    $0x0,%eax
 8049915:	89 f1                	mov    %esi,%ecx
 8049917:	89 df                	mov    %ebx,%edi
 8049919:	f2 ae                	repnz scas %es:(%edi),%al
 804991b:	f7 d1                	not    %ecx
 804991d:	89 cd                	mov    %ecx,%ebp
 804991f:	89 f1                	mov    %esi,%ecx
 8049921:	8b 7c 24 0c          	mov    0xc(%esp),%edi
 8049925:	f2 ae                	repnz scas %es:(%edi),%al
 8049927:	89 4c 24 1c          	mov    %ecx,0x1c(%esp)
 804992b:	89 f1                	mov    %esi,%ecx
 804992d:	8b 7c 24 10          	mov    0x10(%esp),%edi
 8049931:	f2 ae                	repnz scas %es:(%edi),%al
 8049933:	89 ca                	mov    %ecx,%edx
 8049935:	f7 d2                	not    %edx
 8049937:	89 f1                	mov    %esi,%ecx
 8049939:	8b 7c 24 14          	mov    0x14(%esp),%edi
 804993d:	f2 ae                	repnz scas %es:(%edi),%al
 804993f:	2b 54 24 1c          	sub    0x1c(%esp),%edx
 8049943:	29 ca                	sub    %ecx,%edx
 8049945:	8d 44 6d fd          	lea    -0x3(%ebp,%ebp,2),%eax
 8049949:	8d 44 02 7b          	lea    0x7b(%edx,%eax,1),%eax
 804994d:	3d 00 20 00 00       	cmp    $0x2000,%eax
 8049952:	76 7e                	jbe    80499d2 <submitr+0x2d8>
 8049954:	8b 44 24 18          	mov    0x18(%esp),%eax
 8049958:	c7 00 45 72 72 6f    	movl   $0x6f727245,(%eax)
 804995e:	c7 40 04 72 3a 20 52 	movl   $0x52203a72,0x4(%eax)
 8049965:	c7 40 08 65 73 75 6c 	movl   $0x6c757365,0x8(%eax)
 804996c:	c7 40 0c 74 20 73 74 	movl   $0x74732074,0xc(%eax)
 8049973:	c7 40 10 72 69 6e 67 	movl   $0x676e6972,0x10(%eax)
 804997a:	c7 40 14 20 74 6f 6f 	movl   $0x6f6f7420,0x14(%eax)
 8049981:	c7 40 18 20 6c 61 72 	movl   $0x72616c20,0x18(%eax)
 8049988:	c7 40 1c 67 65 2e 20 	movl   $0x202e6567,0x1c(%eax)
 804998f:	c7 40 20 49 6e 63 72 	movl   $0x72636e49,0x20(%eax)
 8049996:	c7 40 24 65 61 73 65 	movl   $0x65736165,0x24(%eax)
 804999d:	c7 40 28 20 53 55 42 	movl   $0x42555320,0x28(%eax)
 80499a4:	c7 40 2c 4d 49 54 52 	movl   $0x5254494d,0x2c(%eax)
 80499ab:	c7 40 30 5f 4d 41 58 	movl   $0x58414d5f,0x30(%eax)
 80499b2:	c7 40 34 42 55 46 00 	movl   $0x465542,0x34(%eax)
 80499b9:	83 ec 0c             	sub    $0xc,%esp
 80499bc:	ff 74 24 14          	pushl  0x14(%esp)
 80499c0:	e8 7b ef ff ff       	call   8048940 <close@plt>
 80499c5:	83 c4 10             	add    $0x10,%esp
 80499c8:	b8 ff ff ff ff       	mov    $0xffffffff,%eax
 80499cd:	e9 2a 04 00 00       	jmp    8049dfc <submitr+0x702>
 80499d2:	8d 94 24 4c 40 00 00 	lea    0x404c(%esp),%edx
 80499d9:	b9 00 08 00 00       	mov    $0x800,%ecx
 80499de:	b8 00 00 00 00       	mov    $0x0,%eax
 80499e3:	89 d7                	mov    %edx,%edi
 80499e5:	f3 ab                	rep stos %eax,%es:(%edi)
 80499e7:	b9 ff ff ff ff       	mov    $0xffffffff,%ecx
 80499ec:	89 df                	mov    %ebx,%edi
 80499ee:	f2 ae                	repnz scas %es:(%edi),%al
 80499f0:	f7 d1                	not    %ecx
 80499f2:	89 ce                	mov    %ecx,%esi
 80499f4:	83 ee 01             	sub    $0x1,%esi
 80499f7:	0f 84 5c 04 00 00    	je     8049e59 <submitr+0x75f>
 80499fd:	89 d5                	mov    %edx,%ebp
 80499ff:	bf d9 ff 00 00       	mov    $0xffd9,%edi
 8049a04:	0f b6 13             	movzbl (%ebx),%edx
 8049a07:	8d 4a d6             	lea    -0x2a(%edx),%ecx
 8049a0a:	b8 01 00 00 00       	mov    $0x1,%eax
 8049a0f:	80 f9 0f             	cmp    $0xf,%cl
 8049a12:	77 0a                	ja     8049a1e <submitr+0x324>
 8049a14:	89 f8                	mov    %edi,%eax
 8049a16:	d3 e8                	shr    %cl,%eax
 8049a18:	83 f0 01             	xor    $0x1,%eax
 8049a1b:	83 e0 01             	and    $0x1,%eax
 8049a1e:	80 fa 5f             	cmp    $0x5f,%dl
 8049a21:	0f 94 c1             	sete   %cl
 8049a24:	38 c1                	cmp    %al,%cl
 8049a26:	73 0c                	jae    8049a34 <submitr+0x33a>
 8049a28:	89 d0                	mov    %edx,%eax
 8049a2a:	83 e0 df             	and    $0xffffffdf,%eax
 8049a2d:	83 e8 41             	sub    $0x41,%eax
 8049a30:	3c 19                	cmp    $0x19,%al
 8049a32:	77 08                	ja     8049a3c <submitr+0x342>
 8049a34:	88 55 00             	mov    %dl,0x0(%ebp)
 8049a37:	8d 6d 01             	lea    0x1(%ebp),%ebp
 8049a3a:	eb 62                	jmp    8049a9e <submitr+0x3a4>
 8049a3c:	80 fa 20             	cmp    $0x20,%dl
 8049a3f:	75 09                	jne    8049a4a <submitr+0x350>
 8049a41:	c6 45 00 2b          	movb   $0x2b,0x0(%ebp)
 8049a45:	8d 6d 01             	lea    0x1(%ebp),%ebp
 8049a48:	eb 54                	jmp    8049a9e <submitr+0x3a4>
 8049a4a:	8d 42 e0             	lea    -0x20(%edx),%eax
 8049a4d:	3c 5f                	cmp    $0x5f,%al
 8049a4f:	76 09                	jbe    8049a5a <submitr+0x360>
 8049a51:	80 fa 09             	cmp    $0x9,%dl
 8049a54:	0f 85 bb 03 00 00    	jne    8049e15 <submitr+0x71b>
 8049a5a:	83 ec 0c             	sub    $0xc,%esp
 8049a5d:	0f b6 d2             	movzbl %dl,%edx
 8049a60:	52                   	push   %edx
 8049a61:	68 50 ab 04 08       	push   $0x804ab50
 8049a66:	6a 08                	push   $0x8
 8049a68:	6a 01                	push   $0x1
 8049a6a:	8d 84 24 68 80 00 00 	lea    0x8068(%esp),%eax
 8049a71:	50                   	push   %eax
 8049a72:	e8 e9 ee ff ff       	call   8048960 <__sprintf_chk@plt>
 8049a77:	0f b6 84 24 6c 80 00 	movzbl 0x806c(%esp),%eax
 8049a7e:	00 
 8049a7f:	88 45 00             	mov    %al,0x0(%ebp)
 8049a82:	0f b6 84 24 6d 80 00 	movzbl 0x806d(%esp),%eax
 8049a89:	00 
 8049a8a:	88 45 01             	mov    %al,0x1(%ebp)
 8049a8d:	0f b6 84 24 6e 80 00 	movzbl 0x806e(%esp),%eax
 8049a94:	00 
 8049a95:	88 45 02             	mov    %al,0x2(%ebp)
 8049a98:	83 c4 20             	add    $0x20,%esp
 8049a9b:	8d 6d 03             	lea    0x3(%ebp),%ebp
 8049a9e:	83 c3 01             	add    $0x1,%ebx
 8049aa1:	83 ee 01             	sub    $0x1,%esi
 8049aa4:	0f 85 5a ff ff ff    	jne    8049a04 <submitr+0x30a>
 8049aaa:	e9 aa 03 00 00       	jmp    8049e59 <submitr+0x75f>
 8049aaf:	83 ec 04             	sub    $0x4,%esp
 8049ab2:	53                   	push   %ebx
 8049ab3:	56                   	push   %esi
 8049ab4:	55                   	push   %ebp
 8049ab5:	e8 d6 ed ff ff       	call   8048890 <write@plt>
 8049aba:	83 c4 10             	add    $0x10,%esp
 8049abd:	85 c0                	test   %eax,%eax
 8049abf:	7f 0f                	jg     8049ad0 <submitr+0x3d6>
 8049ac1:	e8 0a ee ff ff       	call   80488d0 <__errno_location@plt>
 8049ac6:	83 38 04             	cmpl   $0x4,(%eax)
 8049ac9:	75 0f                	jne    8049ada <submitr+0x3e0>
 8049acb:	b8 00 00 00 00       	mov    $0x0,%eax
 8049ad0:	01 c6                	add    %eax,%esi
 8049ad2:	29 c3                	sub    %eax,%ebx
 8049ad4:	75 d9                	jne    8049aaf <submitr+0x3b5>
 8049ad6:	85 ff                	test   %edi,%edi
 8049ad8:	79 69                	jns    8049b43 <submitr+0x449>
 8049ada:	8b 44 24 18          	mov    0x18(%esp),%eax
 8049ade:	c7 00 45 72 72 6f    	movl   $0x6f727245,(%eax)
 8049ae4:	c7 40 04 72 3a 20 43 	movl   $0x43203a72,0x4(%eax)
 8049aeb:	c7 40 08 6c 69 65 6e 	movl   $0x6e65696c,0x8(%eax)
 8049af2:	c7 40 0c 74 20 75 6e 	movl   $0x6e752074,0xc(%eax)
 8049af9:	c7 40 10 61 62 6c 65 	movl   $0x656c6261,0x10(%eax)
 8049b00:	c7 40 14 20 74 6f 20 	movl   $0x206f7420,0x14(%eax)
 8049b07:	c7 40 18 77 72 69 74 	movl   $0x74697277,0x18(%eax)
 8049b0e:	c7 40 1c 65 20 74 6f 	movl   $0x6f742065,0x1c(%eax)
 8049b15:	c7 40 20 20 74 68 65 	movl   $0x65687420,0x20(%eax)
 8049b1c:	c7 40 24 20 73 65 72 	movl   $0x72657320,0x24(%eax)
 8049b23:	c7 40 28 76 65 72 00 	movl   $0x726576,0x28(%eax)
 8049b2a:	83 ec 0c             	sub    $0xc,%esp
 8049b2d:	ff 74 24 14          	pushl  0x14(%esp)
 8049b31:	e8 0a ee ff ff       	call   8048940 <close@plt>
 8049b36:	83 c4 10             	add    $0x10,%esp
 8049b39:	b8 ff ff ff ff       	mov    $0xffffffff,%eax
 8049b3e:	e9 b9 02 00 00       	jmp    8049dfc <submitr+0x702>
 8049b43:	8b 44 24 08          	mov    0x8(%esp),%eax
 8049b47:	89 44 24 40          	mov    %eax,0x40(%esp)
 8049b4b:	c7 44 24 44 00 00 00 	movl   $0x0,0x44(%esp)
 8049b52:	00 
 8049b53:	8d 44 24 4c          	lea    0x4c(%esp),%eax
 8049b57:	89 44 24 48          	mov    %eax,0x48(%esp)
 8049b5b:	b9 00 20 00 00       	mov    $0x2000,%ecx
 8049b60:	8d 94 24 4c 20 00 00 	lea    0x204c(%esp),%edx
 8049b67:	8d 44 24 40          	lea    0x40(%esp),%eax
 8049b6b:	e8 b6 fa ff ff       	call   8049626 <rio_readlineb>
 8049b70:	85 c0                	test   %eax,%eax
 8049b72:	7f 7d                	jg     8049bf1 <submitr+0x4f7>
 8049b74:	8b 44 24 18          	mov    0x18(%esp),%eax
 8049b78:	c7 00 45 72 72 6f    	movl   $0x6f727245,(%eax)
 8049b7e:	c7 40 04 72 3a 20 43 	movl   $0x43203a72,0x4(%eax)
 8049b85:	c7 40 08 6c 69 65 6e 	movl   $0x6e65696c,0x8(%eax)
 8049b8c:	c7 40 0c 74 20 75 6e 	movl   $0x6e752074,0xc(%eax)
 8049b93:	c7 40 10 61 62 6c 65 	movl   $0x656c6261,0x10(%eax)
 8049b9a:	c7 40 14 20 74 6f 20 	movl   $0x206f7420,0x14(%eax)
 8049ba1:	c7 40 18 72 65 61 64 	movl   $0x64616572,0x18(%eax)
 8049ba8:	c7 40 1c 20 66 69 72 	movl   $0x72696620,0x1c(%eax)
 8049baf:	c7 40 20 73 74 20 68 	movl   $0x68207473,0x20(%eax)
 8049bb6:	c7 40 24 65 61 64 65 	movl   $0x65646165,0x24(%eax)
 8049bbd:	c7 40 28 72 20 66 72 	movl   $0x72662072,0x28(%eax)
 8049bc4:	c7 40 2c 6f 6d 20 73 	movl   $0x73206d6f,0x2c(%eax)
 8049bcb:	c7 40 30 65 72 76 65 	movl   $0x65767265,0x30(%eax)
 8049bd2:	66 c7 40 34 72 00    	movw   $0x72,0x34(%eax)
 8049bd8:	83 ec 0c             	sub    $0xc,%esp
 8049bdb:	ff 74 24 14          	pushl  0x14(%esp)
 8049bdf:	e8 5c ed ff ff       	call   8048940 <close@plt>
 8049be4:	83 c4 10             	add    $0x10,%esp
 8049be7:	b8 ff ff ff ff       	mov    $0xffffffff,%eax
 8049bec:	e9 0b 02 00 00       	jmp    8049dfc <submitr+0x702>
 8049bf1:	83 ec 0c             	sub    $0xc,%esp
 8049bf4:	8d 84 24 58 80 00 00 	lea    0x8058(%esp),%eax
 8049bfb:	50                   	push   %eax
 8049bfc:	8d 44 24 3c          	lea    0x3c(%esp),%eax
 8049c00:	50                   	push   %eax
 8049c01:	8d 84 24 60 60 00 00 	lea    0x6060(%esp),%eax
 8049c08:	50                   	push   %eax
 8049c09:	68 57 ab 04 08       	push   $0x804ab57
 8049c0e:	8d 84 24 68 20 00 00 	lea    0x2068(%esp),%eax
 8049c15:	50                   	push   %eax
 8049c16:	e8 95 ec ff ff       	call   80488b0 <__isoc99_sscanf@plt>
 8049c1b:	8b 44 24 4c          	mov    0x4c(%esp),%eax
 8049c1f:	83 c4 20             	add    $0x20,%esp
 8049c22:	3d c8 00 00 00       	cmp    $0xc8,%eax
 8049c27:	0f 84 c4 00 00 00    	je     8049cf1 <submitr+0x5f7>
 8049c2d:	83 ec 08             	sub    $0x8,%esp
 8049c30:	8d 94 24 54 80 00 00 	lea    0x8054(%esp),%edx
 8049c37:	52                   	push   %edx
 8049c38:	50                   	push   %eax
 8049c39:	68 68 aa 04 08       	push   $0x804aa68
 8049c3e:	6a ff                	push   $0xffffffff
 8049c40:	6a 01                	push   $0x1
 8049c42:	ff 74 24 34          	pushl  0x34(%esp)
 8049c46:	e8 15 ed ff ff       	call   8048960 <__sprintf_chk@plt>
 8049c4b:	83 c4 14             	add    $0x14,%esp
 8049c4e:	ff 74 24 14          	pushl  0x14(%esp)
 8049c52:	e8 e9 ec ff ff       	call   8048940 <close@plt>
 8049c57:	83 c4 10             	add    $0x10,%esp
 8049c5a:	b8 ff ff ff ff       	mov    $0xffffffff,%eax
 8049c5f:	e9 98 01 00 00       	jmp    8049dfc <submitr+0x702>
 8049c64:	b9 00 20 00 00       	mov    $0x2000,%ecx
 8049c69:	8d 94 24 4c 20 00 00 	lea    0x204c(%esp),%edx
 8049c70:	8d 44 24 40          	lea    0x40(%esp),%eax
 8049c74:	e8 ad f9 ff ff       	call   8049626 <rio_readlineb>
 8049c79:	85 c0                	test   %eax,%eax
 8049c7b:	7f 74                	jg     8049cf1 <submitr+0x5f7>
 8049c7d:	8b 44 24 18          	mov    0x18(%esp),%eax
 8049c81:	c7 00 45 72 72 6f    	movl   $0x6f727245,(%eax)
 8049c87:	c7 40 04 72 3a 20 43 	movl   $0x43203a72,0x4(%eax)
 8049c8e:	c7 40 08 6c 69 65 6e 	movl   $0x6e65696c,0x8(%eax)
 8049c95:	c7 40 0c 74 20 75 6e 	movl   $0x6e752074,0xc(%eax)
 8049c9c:	c7 40 10 61 62 6c 65 	movl   $0x656c6261,0x10(%eax)
 8049ca3:	c7 40 14 20 74 6f 20 	movl   $0x206f7420,0x14(%eax)
 8049caa:	c7 40 18 72 65 61 64 	movl   $0x64616572,0x18(%eax)
 8049cb1:	c7 40 1c 20 68 65 61 	movl   $0x61656820,0x1c(%eax)
 8049cb8:	c7 40 20 64 65 72 73 	movl   $0x73726564,0x20(%eax)
 8049cbf:	c7 40 24 20 66 72 6f 	movl   $0x6f726620,0x24(%eax)
 8049cc6:	c7 40 28 6d 20 73 65 	movl   $0x6573206d,0x28(%eax)
 8049ccd:	c7 40 2c 72 76 65 72 	movl   $0x72657672,0x2c(%eax)
 8049cd4:	c6 40 30 00          	movb   $0x0,0x30(%eax)
 8049cd8:	83 ec 0c             	sub    $0xc,%esp
 8049cdb:	ff 74 24 14          	pushl  0x14(%esp)
 8049cdf:	e8 5c ec ff ff       	call   8048940 <close@plt>
 8049ce4:	83 c4 10             	add    $0x10,%esp
 8049ce7:	b8 ff ff ff ff       	mov    $0xffffffff,%eax
 8049cec:	e9 0b 01 00 00       	jmp    8049dfc <submitr+0x702>
 8049cf1:	80 bc 24 4c 20 00 00 	cmpb   $0xd,0x204c(%esp)
 8049cf8:	0d 
 8049cf9:	0f 85 65 ff ff ff    	jne    8049c64 <submitr+0x56a>
 8049cff:	80 bc 24 4d 20 00 00 	cmpb   $0xa,0x204d(%esp)
 8049d06:	0a 
 8049d07:	0f 85 57 ff ff ff    	jne    8049c64 <submitr+0x56a>
 8049d0d:	80 bc 24 4e 20 00 00 	cmpb   $0x0,0x204e(%esp)
 8049d14:	00 
 8049d15:	0f 85 49 ff ff ff    	jne    8049c64 <submitr+0x56a>
 8049d1b:	b9 00 20 00 00       	mov    $0x2000,%ecx
 8049d20:	8d 94 24 4c 20 00 00 	lea    0x204c(%esp),%edx
 8049d27:	8d 44 24 40          	lea    0x40(%esp),%eax
 8049d2b:	e8 f6 f8 ff ff       	call   8049626 <rio_readlineb>
 8049d30:	85 c0                	test   %eax,%eax
 8049d32:	7f 7b                	jg     8049daf <submitr+0x6b5>
 8049d34:	8b 44 24 18          	mov    0x18(%esp),%eax
 8049d38:	c7 00 45 72 72 6f    	movl   $0x6f727245,(%eax)
 8049d3e:	c7 40 04 72 3a 20 43 	movl   $0x43203a72,0x4(%eax)
 8049d45:	c7 40 08 6c 69 65 6e 	movl   $0x6e65696c,0x8(%eax)
 8049d4c:	c7 40 0c 74 20 75 6e 	movl   $0x6e752074,0xc(%eax)
 8049d53:	c7 40 10 61 62 6c 65 	movl   $0x656c6261,0x10(%eax)
 8049d5a:	c7 40 14 20 74 6f 20 	movl   $0x206f7420,0x14(%eax)
 8049d61:	c7 40 18 72 65 61 64 	movl   $0x64616572,0x18(%eax)
 8049d68:	c7 40 1c 20 73 74 61 	movl   $0x61747320,0x1c(%eax)
 8049d6f:	c7 40 20 74 75 73 20 	movl   $0x20737574,0x20(%eax)
 8049d76:	c7 40 24 6d 65 73 73 	movl   $0x7373656d,0x24(%eax)
 8049d7d:	c7 40 28 61 67 65 20 	movl   $0x20656761,0x28(%eax)
 8049d84:	c7 40 2c 66 72 6f 6d 	movl   $0x6d6f7266,0x2c(%eax)
 8049d8b:	c7 40 30 20 73 65 72 	movl   $0x72657320,0x30(%eax)
 8049d92:	c7 40 34 76 65 72 00 	movl   $0x726576,0x34(%eax)
 8049d99:	83 ec 0c             	sub    $0xc,%esp
 8049d9c:	ff 74 24 14          	pushl  0x14(%esp)
 8049da0:	e8 9b eb ff ff       	call   8048940 <close@plt>
 8049da5:	83 c4 10             	add    $0x10,%esp
 8049da8:	b8 ff ff ff ff       	mov    $0xffffffff,%eax
 8049dad:	eb 4d                	jmp    8049dfc <submitr+0x702>
 8049daf:	83 ec 08             	sub    $0x8,%esp
 8049db2:	8d 84 24 54 20 00 00 	lea    0x2054(%esp),%eax
 8049db9:	50                   	push   %eax
 8049dba:	8b 7c 24 24          	mov    0x24(%esp),%edi
 8049dbe:	57                   	push   %edi
 8049dbf:	e8 4c ea ff ff       	call   8048810 <strcpy@plt>
 8049dc4:	83 c4 04             	add    $0x4,%esp
 8049dc7:	ff 74 24 14          	pushl  0x14(%esp)
 8049dcb:	e8 70 eb ff ff       	call   8048940 <close@plt>
 8049dd0:	0f b6 17             	movzbl (%edi),%edx
 8049dd3:	b8 4f 00 00 00       	mov    $0x4f,%eax
 8049dd8:	83 c4 10             	add    $0x10,%esp
 8049ddb:	29 d0                	sub    %edx,%eax
 8049ddd:	75 13                	jne    8049df2 <submitr+0x6f8>
 8049ddf:	0f b6 57 01          	movzbl 0x1(%edi),%edx
 8049de3:	b8 4b 00 00 00       	mov    $0x4b,%eax
 8049de8:	29 d0                	sub    %edx,%eax
 8049dea:	75 06                	jne    8049df2 <submitr+0x6f8>
 8049dec:	0f b6 47 02          	movzbl 0x2(%edi),%eax
 8049df0:	f7 d8                	neg    %eax
 8049df2:	85 c0                	test   %eax,%eax
 8049df4:	0f 95 c0             	setne  %al
 8049df7:	0f b6 c0             	movzbl %al,%eax
 8049dfa:	f7 d8                	neg    %eax
 8049dfc:	8b bc 24 4c a0 00 00 	mov    0xa04c(%esp),%edi
 8049e03:	65 33 3d 14 00 00 00 	xor    %gs:0x14,%edi
 8049e0a:	0f 84 a9 00 00 00    	je     8049eb9 <submitr+0x7bf>
 8049e10:	e9 9f 00 00 00       	jmp    8049eb4 <submitr+0x7ba>
 8049e15:	a1 98 aa 04 08       	mov    0x804aa98,%eax
 8049e1a:	8b 7c 24 18          	mov    0x18(%esp),%edi
 8049e1e:	89 07                	mov    %eax,(%edi)
 8049e20:	a1 d7 aa 04 08       	mov    0x804aad7,%eax
 8049e25:	89 47 3f             	mov    %eax,0x3f(%edi)
 8049e28:	89 f8                	mov    %edi,%eax
 8049e2a:	83 c7 04             	add    $0x4,%edi
 8049e2d:	83 e7 fc             	and    $0xfffffffc,%edi
 8049e30:	29 f8                	sub    %edi,%eax
 8049e32:	be 98 aa 04 08       	mov    $0x804aa98,%esi
 8049e37:	29 c6                	sub    %eax,%esi
 8049e39:	83 c0 43             	add    $0x43,%eax
 8049e3c:	c1 e8 02             	shr    $0x2,%eax
 8049e3f:	89 c1                	mov    %eax,%ecx
 8049e41:	f3 a5                	rep movsl %ds:(%esi),%es:(%edi)
 8049e43:	83 ec 0c             	sub    $0xc,%esp
 8049e46:	ff 74 24 14          	pushl  0x14(%esp)
 8049e4a:	e8 f1 ea ff ff       	call   8048940 <close@plt>
 8049e4f:	83 c4 10             	add    $0x10,%esp
 8049e52:	b8 ff ff ff ff       	mov    $0xffffffff,%eax
 8049e57:	eb a3                	jmp    8049dfc <submitr+0x702>
 8049e59:	8d 84 24 4c 40 00 00 	lea    0x404c(%esp),%eax
 8049e60:	50                   	push   %eax
 8049e61:	ff 74 24 18          	pushl  0x18(%esp)
 8049e65:	ff 74 24 18          	pushl  0x18(%esp)
 8049e69:	ff 74 24 18          	pushl  0x18(%esp)
 8049e6d:	68 dc aa 04 08       	push   $0x804aadc
 8049e72:	68 00 20 00 00       	push   $0x2000
 8049e77:	6a 01                	push   $0x1
 8049e79:	8d bc 24 68 20 00 00 	lea    0x2068(%esp),%edi
 8049e80:	57                   	push   %edi
 8049e81:	e8 da ea ff ff       	call   8048960 <__sprintf_chk@plt>
 8049e86:	b8 00 00 00 00       	mov    $0x0,%eax
 8049e8b:	b9 ff ff ff ff       	mov    $0xffffffff,%ecx
 8049e90:	f2 ae                	repnz scas %es:(%edi),%al
 8049e92:	f7 d1                	not    %ecx
 8049e94:	8d 79 ff             	lea    -0x1(%ecx),%edi
 8049e97:	83 c4 20             	add    $0x20,%esp
 8049e9a:	89 fb                	mov    %edi,%ebx
 8049e9c:	8d b4 24 4c 20 00 00 	lea    0x204c(%esp),%esi
 8049ea3:	8b 6c 24 08          	mov    0x8(%esp),%ebp
 8049ea7:	85 ff                	test   %edi,%edi
 8049ea9:	0f 85 00 fc ff ff    	jne    8049aaf <submitr+0x3b5>
 8049eaf:	e9 8f fc ff ff       	jmp    8049b43 <submitr+0x449>
 8049eb4:	e8 47 e9 ff ff       	call   8048800 <__stack_chk_fail@plt>
 8049eb9:	81 c4 5c a0 00 00    	add    $0xa05c,%esp
 8049ebf:	5b                   	pop    %ebx
 8049ec0:	5e                   	pop    %esi
 8049ec1:	5f                   	pop    %edi
 8049ec2:	5d                   	pop    %ebp
 8049ec3:	c3                   	ret    

08049ec4 <init_timeout>:
 8049ec4:	53                   	push   %ebx
 8049ec5:	83 ec 08             	sub    $0x8,%esp
 8049ec8:	8b 5c 24 10          	mov    0x10(%esp),%ebx
 8049ecc:	85 db                	test   %ebx,%ebx
 8049ece:	74 24                	je     8049ef4 <init_timeout+0x30>
 8049ed0:	83 ec 08             	sub    $0x8,%esp
 8049ed3:	68 03 96 04 08       	push   $0x8049603
 8049ed8:	6a 0e                	push   $0xe
 8049eda:	e8 f1 e8 ff ff       	call   80487d0 <signal@plt>
 8049edf:	85 db                	test   %ebx,%ebx
 8049ee1:	b8 00 00 00 00       	mov    $0x0,%eax
 8049ee6:	0f 48 d8             	cmovs  %eax,%ebx
 8049ee9:	89 1c 24             	mov    %ebx,(%esp)
 8049eec:	e8 ff e8 ff ff       	call   80487f0 <alarm@plt>
 8049ef1:	83 c4 10             	add    $0x10,%esp
 8049ef4:	83 c4 08             	add    $0x8,%esp
 8049ef7:	5b                   	pop    %ebx
 8049ef8:	c3                   	ret    

08049ef9 <init_driver>:
 8049ef9:	57                   	push   %edi
 8049efa:	56                   	push   %esi
 8049efb:	53                   	push   %ebx
 8049efc:	83 ec 28             	sub    $0x28,%esp
 8049eff:	8b 74 24 38          	mov    0x38(%esp),%esi
 8049f03:	65 a1 14 00 00 00    	mov    %gs:0x14,%eax
 8049f09:	89 44 24 24          	mov    %eax,0x24(%esp)
 8049f0d:	31 c0                	xor    %eax,%eax
 8049f0f:	6a 01                	push   $0x1
 8049f11:	6a 0d                	push   $0xd
 8049f13:	e8 b8 e8 ff ff       	call   80487d0 <signal@plt>
 8049f18:	83 c4 08             	add    $0x8,%esp
 8049f1b:	6a 01                	push   $0x1
 8049f1d:	6a 1d                	push   $0x1d
 8049f1f:	e8 ac e8 ff ff       	call   80487d0 <signal@plt>
 8049f24:	83 c4 08             	add    $0x8,%esp
 8049f27:	6a 01                	push   $0x1
 8049f29:	6a 1d                	push   $0x1d
 8049f2b:	e8 a0 e8 ff ff       	call   80487d0 <signal@plt>
 8049f30:	83 c4 0c             	add    $0xc,%esp
 8049f33:	6a 00                	push   $0x0
 8049f35:	6a 01                	push   $0x1
 8049f37:	6a 02                	push   $0x2
 8049f39:	e8 b2 e9 ff ff       	call   80488f0 <socket@plt>
 8049f3e:	83 c4 10             	add    $0x10,%esp
 8049f41:	85 c0                	test   %eax,%eax
 8049f43:	79 4e                	jns    8049f93 <init_driver+0x9a>
 8049f45:	c7 06 45 72 72 6f    	movl   $0x6f727245,(%esi)
 8049f4b:	c7 46 04 72 3a 20 43 	movl   $0x43203a72,0x4(%esi)
 8049f52:	c7 46 08 6c 69 65 6e 	movl   $0x6e65696c,0x8(%esi)
 8049f59:	c7 46 0c 74 20 75 6e 	movl   $0x6e752074,0xc(%esi)
 8049f60:	c7 46 10 61 62 6c 65 	movl   $0x656c6261,0x10(%esi)
 8049f67:	c7 46 14 20 74 6f 20 	movl   $0x206f7420,0x14(%esi)
 8049f6e:	c7 46 18 63 72 65 61 	movl   $0x61657263,0x18(%esi)
 8049f75:	c7 46 1c 74 65 20 73 	movl   $0x73206574,0x1c(%esi)
 8049f7c:	c7 46 20 6f 63 6b 65 	movl   $0x656b636f,0x20(%esi)
 8049f83:	66 c7 46 24 74 00    	movw   $0x74,0x24(%esi)
 8049f89:	b8 ff ff ff ff       	mov    $0xffffffff,%eax
 8049f8e:	e9 1f 01 00 00       	jmp    804a0b2 <init_driver+0x1b9>
 8049f93:	89 c3                	mov    %eax,%ebx
 8049f95:	83 ec 0c             	sub    $0xc,%esp
 8049f98:	68 68 ab 04 08       	push   $0x804ab68
 8049f9d:	e8 6e e9 ff ff       	call   8048910 <gethostbyname@plt>
 8049fa2:	83 c4 10             	add    $0x10,%esp
 8049fa5:	85 c0                	test   %eax,%eax
 8049fa7:	75 6c                	jne    804a015 <init_driver+0x11c>
 8049fa9:	c7 06 45 72 72 6f    	movl   $0x6f727245,(%esi)
 8049faf:	c7 46 04 72 3a 20 44 	movl   $0x44203a72,0x4(%esi)
 8049fb6:	c7 46 08 4e 53 20 69 	movl   $0x6920534e,0x8(%esi)
 8049fbd:	c7 46 0c 73 20 75 6e 	movl   $0x6e752073,0xc(%esi)
 8049fc4:	c7 46 10 61 62 6c 65 	movl   $0x656c6261,0x10(%esi)
 8049fcb:	c7 46 14 20 74 6f 20 	movl   $0x206f7420,0x14(%esi)
 8049fd2:	c7 46 18 72 65 73 6f 	movl   $0x6f736572,0x18(%esi)
 8049fd9:	c7 46 1c 6c 76 65 20 	movl   $0x2065766c,0x1c(%esi)
 8049fe0:	c7 46 20 73 65 72 76 	movl   $0x76726573,0x20(%esi)
 8049fe7:	c7 46 24 65 72 20 61 	movl   $0x61207265,0x24(%esi)
 8049fee:	c7 46 28 64 64 72 65 	movl   $0x65726464,0x28(%esi)
 8049ff5:	66 c7 46 2c 73 73    	movw   $0x7373,0x2c(%esi)
 8049ffb:	c6 46 2e 00          	movb   $0x0,0x2e(%esi)
 8049fff:	83 ec 0c             	sub    $0xc,%esp
 804a002:	53                   	push   %ebx
 804a003:	e8 38 e9 ff ff       	call   8048940 <close@plt>
 804a008:	83 c4 10             	add    $0x10,%esp
 804a00b:	b8 ff ff ff ff       	mov    $0xffffffff,%eax
 804a010:	e9 9d 00 00 00       	jmp    804a0b2 <init_driver+0x1b9>
 804a015:	8d 7c 24 0c          	lea    0xc(%esp),%edi
 804a019:	c7 44 24 0c 00 00 00 	movl   $0x0,0xc(%esp)
 804a020:	00 
 804a021:	c7 44 24 10 00 00 00 	movl   $0x0,0x10(%esp)
 804a028:	00 
 804a029:	c7 44 24 14 00 00 00 	movl   $0x0,0x14(%esp)
 804a030:	00 
 804a031:	c7 44 24 18 00 00 00 	movl   $0x0,0x18(%esp)
 804a038:	00 
 804a039:	66 c7 44 24 0c 02 00 	movw   $0x2,0xc(%esp)
 804a040:	6a 0c                	push   $0xc
 804a042:	ff 70 0c             	pushl  0xc(%eax)
 804a045:	8b 40 10             	mov    0x10(%eax),%eax
 804a048:	ff 30                	pushl  (%eax)
 804a04a:	8d 44 24 1c          	lea    0x1c(%esp),%eax
 804a04e:	50                   	push   %eax
 804a04f:	e8 0c e8 ff ff       	call   8048860 <__memmove_chk@plt>
 804a054:	66 c7 44 24 1e 43 31 	movw   $0x3143,0x1e(%esp)
 804a05b:	83 c4 0c             	add    $0xc,%esp
 804a05e:	6a 10                	push   $0x10
 804a060:	57                   	push   %edi
 804a061:	53                   	push   %ebx
 804a062:	e8 c9 e8 ff ff       	call   8048930 <connect@plt>
 804a067:	83 c4 10             	add    $0x10,%esp
 804a06a:	85 c0                	test   %eax,%eax
 804a06c:	79 2a                	jns    804a098 <init_driver+0x19f>
 804a06e:	83 ec 0c             	sub    $0xc,%esp
 804a071:	68 68 ab 04 08       	push   $0x804ab68
 804a076:	68 28 ab 04 08       	push   $0x804ab28
 804a07b:	6a ff                	push   $0xffffffff
 804a07d:	6a 01                	push   $0x1
 804a07f:	56                   	push   %esi
 804a080:	e8 db e8 ff ff       	call   8048960 <__sprintf_chk@plt>
 804a085:	83 c4 14             	add    $0x14,%esp
 804a088:	53                   	push   %ebx
 804a089:	e8 b2 e8 ff ff       	call   8048940 <close@plt>
 804a08e:	83 c4 10             	add    $0x10,%esp
 804a091:	b8 ff ff ff ff       	mov    $0xffffffff,%eax
 804a096:	eb 1a                	jmp    804a0b2 <init_driver+0x1b9>
 804a098:	83 ec 0c             	sub    $0xc,%esp
 804a09b:	53                   	push   %ebx
 804a09c:	e8 9f e8 ff ff       	call   8048940 <close@plt>
 804a0a1:	66 c7 06 4f 4b       	movw   $0x4b4f,(%esi)
 804a0a6:	c6 46 02 00          	movb   $0x0,0x2(%esi)
 804a0aa:	83 c4 10             	add    $0x10,%esp
 804a0ad:	b8 00 00 00 00       	mov    $0x0,%eax
 804a0b2:	8b 54 24 1c          	mov    0x1c(%esp),%edx
 804a0b6:	65 33 15 14 00 00 00 	xor    %gs:0x14,%edx
 804a0bd:	74 05                	je     804a0c4 <init_driver+0x1cb>
 804a0bf:	e8 3c e7 ff ff       	call   8048800 <__stack_chk_fail@plt>
 804a0c4:	83 c4 20             	add    $0x20,%esp
 804a0c7:	5b                   	pop    %ebx
 804a0c8:	5e                   	pop    %esi
 804a0c9:	5f                   	pop    %edi
 804a0ca:	c3                   	ret    

0804a0cb <driver_post>:
 804a0cb:	53                   	push   %ebx
 804a0cc:	83 ec 08             	sub    $0x8,%esp
 804a0cf:	8b 44 24 10          	mov    0x10(%esp),%eax
 804a0d3:	8b 5c 24 1c          	mov    0x1c(%esp),%ebx
 804a0d7:	83 7c 24 18 00       	cmpl   $0x0,0x18(%esp)
 804a0dc:	74 26                	je     804a104 <driver_post+0x39>
 804a0de:	83 ec 04             	sub    $0x4,%esp
 804a0e1:	ff 74 24 18          	pushl  0x18(%esp)
 804a0e5:	68 7d ab 04 08       	push   $0x804ab7d
 804a0ea:	6a 01                	push   $0x1
 804a0ec:	e8 ef e7 ff ff       	call   80488e0 <__printf_chk@plt>
 804a0f1:	66 c7 03 4f 4b       	movw   $0x4b4f,(%ebx)
 804a0f6:	c6 43 02 00          	movb   $0x0,0x2(%ebx)
 804a0fa:	83 c4 10             	add    $0x10,%esp
 804a0fd:	b8 00 00 00 00       	mov    $0x0,%eax
 804a102:	eb 3e                	jmp    804a142 <driver_post+0x77>
 804a104:	85 c0                	test   %eax,%eax
 804a106:	74 2c                	je     804a134 <driver_post+0x69>
 804a108:	80 38 00             	cmpb   $0x0,(%eax)
 804a10b:	74 27                	je     804a134 <driver_post+0x69>
 804a10d:	83 ec 04             	sub    $0x4,%esp
 804a110:	53                   	push   %ebx
 804a111:	ff 74 24 1c          	pushl  0x1c(%esp)
 804a115:	68 94 ab 04 08       	push   $0x804ab94
 804a11a:	50                   	push   %eax
 804a11b:	68 9b ab 04 08       	push   $0x804ab9b
 804a120:	68 31 43 00 00       	push   $0x4331
 804a125:	68 68 ab 04 08       	push   $0x804ab68
 804a12a:	e8 cb f5 ff ff       	call   80496fa <submitr>
 804a12f:	83 c4 20             	add    $0x20,%esp
 804a132:	eb 0e                	jmp    804a142 <driver_post+0x77>
 804a134:	66 c7 03 4f 4b       	movw   $0x4b4f,(%ebx)
 804a139:	c6 43 02 00          	movb   $0x0,0x2(%ebx)
 804a13d:	b8 00 00 00 00       	mov    $0x0,%eax
 804a142:	83 c4 08             	add    $0x8,%esp
 804a145:	5b                   	pop    %ebx
 804a146:	c3                   	ret    
 804a147:	66 90                	xchg   %ax,%ax
 804a149:	66 90                	xchg   %ax,%ax
 804a14b:	66 90                	xchg   %ax,%ax
 804a14d:	66 90                	xchg   %ax,%ax
 804a14f:	90                   	nop

0804a150 <__libc_csu_init>:
 804a150:	55                   	push   %ebp
 804a151:	57                   	push   %edi
 804a152:	56                   	push   %esi
 804a153:	53                   	push   %ebx
 804a154:	e8 57 e8 ff ff       	call   80489b0 <__x86.get_pc_thunk.bx>
 804a159:	81 c3 a7 2e 00 00    	add    $0x2ea7,%ebx
 804a15f:	83 ec 0c             	sub    $0xc,%esp
 804a162:	8b 6c 24 20          	mov    0x20(%esp),%ebp
 804a166:	8d b3 0c ff ff ff    	lea    -0xf4(%ebx),%esi
 804a16c:	e8 ef e5 ff ff       	call   8048760 <_init>
 804a171:	8d 83 08 ff ff ff    	lea    -0xf8(%ebx),%eax
 804a177:	29 c6                	sub    %eax,%esi
 804a179:	c1 fe 02             	sar    $0x2,%esi
 804a17c:	85 f6                	test   %esi,%esi
 804a17e:	74 25                	je     804a1a5 <__libc_csu_init+0x55>
 804a180:	31 ff                	xor    %edi,%edi
 804a182:	8d b6 00 00 00 00    	lea    0x0(%esi),%esi
 804a188:	83 ec 04             	sub    $0x4,%esp
 804a18b:	ff 74 24 2c          	pushl  0x2c(%esp)
 804a18f:	ff 74 24 2c          	pushl  0x2c(%esp)
 804a193:	55                   	push   %ebp
 804a194:	ff 94 bb 08 ff ff ff 	call   *-0xf8(%ebx,%edi,4)
 804a19b:	83 c7 01             	add    $0x1,%edi
 804a19e:	83 c4 10             	add    $0x10,%esp
 804a1a1:	39 f7                	cmp    %esi,%edi
 804a1a3:	75 e3                	jne    804a188 <__libc_csu_init+0x38>
 804a1a5:	83 c4 0c             	add    $0xc,%esp
 804a1a8:	5b                   	pop    %ebx
 804a1a9:	5e                   	pop    %esi
 804a1aa:	5f                   	pop    %edi
 804a1ab:	5d                   	pop    %ebp
 804a1ac:	c3                   	ret    
 804a1ad:	8d 76 00             	lea    0x0(%esi),%esi

0804a1b0 <__libc_csu_fini>:
 804a1b0:	f3 c3                	repz ret 

Disassembly of section .fini:

0804a1b4 <_fini>:
 804a1b4:	53                   	push   %ebx
 804a1b5:	83 ec 08             	sub    $0x8,%esp
 804a1b8:	e8 f3 e7 ff ff       	call   80489b0 <__x86.get_pc_thunk.bx>
 804a1bd:	81 c3 43 2e 00 00    	add    $0x2e43,%ebx
 804a1c3:	83 c4 08             	add    $0x8,%esp
 804a1c6:	5b                   	pop    %ebx
 804a1c7:	c3                   	ret    
